
Multiparameter_Monitor.elf:     file format elf32-littlearm

Sections:
Idx Name          Size      VMA       LMA       File off  Algn
  0 .isr_vector   000001c4  08000000  08000000  00010000  2**0
                  CONTENTS, ALLOC, LOAD, READONLY, DATA
  1 .text         00002e00  080001c4  080001c4  000101c4  2**2
                  CONTENTS, ALLOC, LOAD, READONLY, CODE
  2 .rodata       00000020  08002fc4  08002fc4  00012fc4  2**0
                  CONTENTS, ALLOC, LOAD, READONLY, DATA
  3 .ARM.extab    00000000  08002fe4  08002fe4  0002000c  2**0
                  CONTENTS
  4 .ARM          00000008  08002fe4  08002fe4  00012fe4  2**2
                  CONTENTS, ALLOC, LOAD, READONLY, DATA
  5 .preinit_array 00000000  08002fec  08002fec  0002000c  2**0
                  CONTENTS, ALLOC, LOAD, DATA
  6 .init_array   00000004  08002fec  08002fec  00012fec  2**2
                  CONTENTS, ALLOC, LOAD, DATA
  7 .fini_array   00000004  08002ff0  08002ff0  00012ff0  2**2
                  CONTENTS, ALLOC, LOAD, DATA
  8 .data         0000000c  20000000  08002ff4  00020000  2**2
                  CONTENTS, ALLOC, LOAD, DATA
  9 .bss          00000810  2000000c  08003000  0002000c  2**2
                  ALLOC
 10 ._user_heap_stack 00000604  2000081c  08003000  0002081c  2**0
                  ALLOC
 11 .ARM.attributes 00000030  00000000  00000000  0002000c  2**0
                  CONTENTS, READONLY
 12 .comment      00000043  00000000  00000000  0002003c  2**0
                  CONTENTS, READONLY
 13 .debug_frame  000000ac  00000000  00000000  00020080  2**2
                  CONTENTS, READONLY, DEBUGGING, OCTETS

Disassembly of section .text:

080001c4 <__do_global_dtors_aux>:
 80001c4:	b510      	push	{r4, lr}
 80001c6:	4c05      	ldr	r4, [pc, #20]	; (80001dc <__do_global_dtors_aux+0x18>)
 80001c8:	7823      	ldrb	r3, [r4, #0]
 80001ca:	b933      	cbnz	r3, 80001da <__do_global_dtors_aux+0x16>
 80001cc:	4b04      	ldr	r3, [pc, #16]	; (80001e0 <__do_global_dtors_aux+0x1c>)
 80001ce:	b113      	cbz	r3, 80001d6 <__do_global_dtors_aux+0x12>
 80001d0:	4804      	ldr	r0, [pc, #16]	; (80001e4 <__do_global_dtors_aux+0x20>)
 80001d2:	f3af 8000 	nop.w
 80001d6:	2301      	movs	r3, #1
 80001d8:	7023      	strb	r3, [r4, #0]
 80001da:	bd10      	pop	{r4, pc}
 80001dc:	2000000c 	.word	0x2000000c
 80001e0:	00000000 	.word	0x00000000
 80001e4:	08002fac 	.word	0x08002fac

080001e8 <frame_dummy>:
 80001e8:	b508      	push	{r3, lr}
 80001ea:	4b03      	ldr	r3, [pc, #12]	; (80001f8 <frame_dummy+0x10>)
 80001ec:	b11b      	cbz	r3, 80001f6 <frame_dummy+0xe>
 80001ee:	4903      	ldr	r1, [pc, #12]	; (80001fc <frame_dummy+0x14>)
 80001f0:	4803      	ldr	r0, [pc, #12]	; (8000200 <frame_dummy+0x18>)
 80001f2:	f3af 8000 	nop.w
 80001f6:	bd08      	pop	{r3, pc}
 80001f8:	00000000 	.word	0x00000000
 80001fc:	20000010 	.word	0x20000010
 8000200:	08002fac 	.word	0x08002fac

08000204 <__aeabi_uldivmod>:
 8000204:	b953      	cbnz	r3, 800021c <__aeabi_uldivmod+0x18>
 8000206:	b94a      	cbnz	r2, 800021c <__aeabi_uldivmod+0x18>
 8000208:	2900      	cmp	r1, #0
 800020a:	bf08      	it	eq
 800020c:	2800      	cmpeq	r0, #0
 800020e:	bf1c      	itt	ne
 8000210:	f04f 31ff 	movne.w	r1, #4294967295
 8000214:	f04f 30ff 	movne.w	r0, #4294967295
 8000218:	f000 b970 	b.w	80004fc <__aeabi_idiv0>
 800021c:	f1ad 0c08 	sub.w	ip, sp, #8
 8000220:	e96d ce04 	strd	ip, lr, [sp, #-16]!
 8000224:	f000 f806 	bl	8000234 <__udivmoddi4>
 8000228:	f8dd e004 	ldr.w	lr, [sp, #4]
 800022c:	e9dd 2302 	ldrd	r2, r3, [sp, #8]
 8000230:	b004      	add	sp, #16
 8000232:	4770      	bx	lr

08000234 <__udivmoddi4>:
 8000234:	e92d 47f0 	stmdb	sp!, {r4, r5, r6, r7, r8, r9, sl, lr}
 8000238:	9e08      	ldr	r6, [sp, #32]
 800023a:	460d      	mov	r5, r1
 800023c:	4604      	mov	r4, r0
 800023e:	460f      	mov	r7, r1
 8000240:	2b00      	cmp	r3, #0
 8000242:	d14a      	bne.n	80002da <__udivmoddi4+0xa6>
 8000244:	428a      	cmp	r2, r1
 8000246:	4694      	mov	ip, r2
 8000248:	d965      	bls.n	8000316 <__udivmoddi4+0xe2>
 800024a:	fab2 f382 	clz	r3, r2
 800024e:	b143      	cbz	r3, 8000262 <__udivmoddi4+0x2e>
 8000250:	fa02 fc03 	lsl.w	ip, r2, r3
 8000254:	f1c3 0220 	rsb	r2, r3, #32
 8000258:	409f      	lsls	r7, r3
 800025a:	fa20 f202 	lsr.w	r2, r0, r2
 800025e:	4317      	orrs	r7, r2
 8000260:	409c      	lsls	r4, r3
 8000262:	ea4f 4e1c 	mov.w	lr, ip, lsr #16
 8000266:	fa1f f58c 	uxth.w	r5, ip
 800026a:	fbb7 f1fe 	udiv	r1, r7, lr
 800026e:	0c22      	lsrs	r2, r4, #16
 8000270:	fb0e 7711 	mls	r7, lr, r1, r7
 8000274:	ea42 4207 	orr.w	r2, r2, r7, lsl #16
 8000278:	fb01 f005 	mul.w	r0, r1, r5
 800027c:	4290      	cmp	r0, r2
 800027e:	d90a      	bls.n	8000296 <__udivmoddi4+0x62>
 8000280:	eb1c 0202 	adds.w	r2, ip, r2
 8000284:	f101 37ff 	add.w	r7, r1, #4294967295
 8000288:	f080 811c 	bcs.w	80004c4 <__udivmoddi4+0x290>
 800028c:	4290      	cmp	r0, r2
 800028e:	f240 8119 	bls.w	80004c4 <__udivmoddi4+0x290>
 8000292:	3902      	subs	r1, #2
 8000294:	4462      	add	r2, ip
 8000296:	1a12      	subs	r2, r2, r0
 8000298:	b2a4      	uxth	r4, r4
 800029a:	fbb2 f0fe 	udiv	r0, r2, lr
 800029e:	fb0e 2210 	mls	r2, lr, r0, r2
 80002a2:	ea44 4402 	orr.w	r4, r4, r2, lsl #16
 80002a6:	fb00 f505 	mul.w	r5, r0, r5
 80002aa:	42a5      	cmp	r5, r4
 80002ac:	d90a      	bls.n	80002c4 <__udivmoddi4+0x90>
 80002ae:	eb1c 0404 	adds.w	r4, ip, r4
 80002b2:	f100 32ff 	add.w	r2, r0, #4294967295
 80002b6:	f080 8107 	bcs.w	80004c8 <__udivmoddi4+0x294>
 80002ba:	42a5      	cmp	r5, r4
 80002bc:	f240 8104 	bls.w	80004c8 <__udivmoddi4+0x294>
 80002c0:	4464      	add	r4, ip
 80002c2:	3802      	subs	r0, #2
 80002c4:	ea40 4001 	orr.w	r0, r0, r1, lsl #16
 80002c8:	1b64      	subs	r4, r4, r5
 80002ca:	2100      	movs	r1, #0
 80002cc:	b11e      	cbz	r6, 80002d6 <__udivmoddi4+0xa2>
 80002ce:	40dc      	lsrs	r4, r3
 80002d0:	2300      	movs	r3, #0
 80002d2:	e9c6 4300 	strd	r4, r3, [r6]
 80002d6:	e8bd 87f0 	ldmia.w	sp!, {r4, r5, r6, r7, r8, r9, sl, pc}
 80002da:	428b      	cmp	r3, r1
 80002dc:	d908      	bls.n	80002f0 <__udivmoddi4+0xbc>
 80002de:	2e00      	cmp	r6, #0
 80002e0:	f000 80ed 	beq.w	80004be <__udivmoddi4+0x28a>
 80002e4:	2100      	movs	r1, #0
 80002e6:	e9c6 0500 	strd	r0, r5, [r6]
 80002ea:	4608      	mov	r0, r1
 80002ec:	e8bd 87f0 	ldmia.w	sp!, {r4, r5, r6, r7, r8, r9, sl, pc}
 80002f0:	fab3 f183 	clz	r1, r3
 80002f4:	2900      	cmp	r1, #0
 80002f6:	d149      	bne.n	800038c <__udivmoddi4+0x158>
 80002f8:	42ab      	cmp	r3, r5
 80002fa:	d302      	bcc.n	8000302 <__udivmoddi4+0xce>
 80002fc:	4282      	cmp	r2, r0
 80002fe:	f200 80f8 	bhi.w	80004f2 <__udivmoddi4+0x2be>
 8000302:	1a84      	subs	r4, r0, r2
 8000304:	eb65 0203 	sbc.w	r2, r5, r3
 8000308:	2001      	movs	r0, #1
 800030a:	4617      	mov	r7, r2
 800030c:	2e00      	cmp	r6, #0
 800030e:	d0e2      	beq.n	80002d6 <__udivmoddi4+0xa2>
 8000310:	e9c6 4700 	strd	r4, r7, [r6]
 8000314:	e7df      	b.n	80002d6 <__udivmoddi4+0xa2>
 8000316:	b902      	cbnz	r2, 800031a <__udivmoddi4+0xe6>
 8000318:	deff      	udf	#255	; 0xff
 800031a:	fab2 f382 	clz	r3, r2
 800031e:	2b00      	cmp	r3, #0
 8000320:	f040 8090 	bne.w	8000444 <__udivmoddi4+0x210>
 8000324:	1a8a      	subs	r2, r1, r2
 8000326:	ea4f 471c 	mov.w	r7, ip, lsr #16
 800032a:	fa1f fe8c 	uxth.w	lr, ip
 800032e:	2101      	movs	r1, #1
 8000330:	fbb2 f5f7 	udiv	r5, r2, r7
 8000334:	fb07 2015 	mls	r0, r7, r5, r2
 8000338:	0c22      	lsrs	r2, r4, #16
 800033a:	ea42 4200 	orr.w	r2, r2, r0, lsl #16
 800033e:	fb0e f005 	mul.w	r0, lr, r5
 8000342:	4290      	cmp	r0, r2
 8000344:	d908      	bls.n	8000358 <__udivmoddi4+0x124>
 8000346:	eb1c 0202 	adds.w	r2, ip, r2
 800034a:	f105 38ff 	add.w	r8, r5, #4294967295
 800034e:	d202      	bcs.n	8000356 <__udivmoddi4+0x122>
 8000350:	4290      	cmp	r0, r2
 8000352:	f200 80cb 	bhi.w	80004ec <__udivmoddi4+0x2b8>
 8000356:	4645      	mov	r5, r8
 8000358:	1a12      	subs	r2, r2, r0
 800035a:	b2a4      	uxth	r4, r4
 800035c:	fbb2 f0f7 	udiv	r0, r2, r7
 8000360:	fb07 2210 	mls	r2, r7, r0, r2
 8000364:	ea44 4402 	orr.w	r4, r4, r2, lsl #16
 8000368:	fb0e fe00 	mul.w	lr, lr, r0
 800036c:	45a6      	cmp	lr, r4
 800036e:	d908      	bls.n	8000382 <__udivmoddi4+0x14e>
 8000370:	eb1c 0404 	adds.w	r4, ip, r4
 8000374:	f100 32ff 	add.w	r2, r0, #4294967295
 8000378:	d202      	bcs.n	8000380 <__udivmoddi4+0x14c>
 800037a:	45a6      	cmp	lr, r4
 800037c:	f200 80bb 	bhi.w	80004f6 <__udivmoddi4+0x2c2>
 8000380:	4610      	mov	r0, r2
 8000382:	eba4 040e 	sub.w	r4, r4, lr
 8000386:	ea40 4005 	orr.w	r0, r0, r5, lsl #16
 800038a:	e79f      	b.n	80002cc <__udivmoddi4+0x98>
 800038c:	f1c1 0720 	rsb	r7, r1, #32
 8000390:	408b      	lsls	r3, r1
 8000392:	fa22 fc07 	lsr.w	ip, r2, r7
 8000396:	ea4c 0c03 	orr.w	ip, ip, r3
 800039a:	fa05 f401 	lsl.w	r4, r5, r1
 800039e:	fa20 f307 	lsr.w	r3, r0, r7
 80003a2:	40fd      	lsrs	r5, r7
 80003a4:	ea4f 491c 	mov.w	r9, ip, lsr #16
 80003a8:	4323      	orrs	r3, r4
 80003aa:	fbb5 f8f9 	udiv	r8, r5, r9
 80003ae:	fa1f fe8c 	uxth.w	lr, ip
 80003b2:	fb09 5518 	mls	r5, r9, r8, r5
 80003b6:	0c1c      	lsrs	r4, r3, #16
 80003b8:	ea44 4405 	orr.w	r4, r4, r5, lsl #16
 80003bc:	fb08 f50e 	mul.w	r5, r8, lr
 80003c0:	42a5      	cmp	r5, r4
 80003c2:	fa02 f201 	lsl.w	r2, r2, r1
 80003c6:	fa00 f001 	lsl.w	r0, r0, r1
 80003ca:	d90b      	bls.n	80003e4 <__udivmoddi4+0x1b0>
 80003cc:	eb1c 0404 	adds.w	r4, ip, r4
 80003d0:	f108 3aff 	add.w	sl, r8, #4294967295
 80003d4:	f080 8088 	bcs.w	80004e8 <__udivmoddi4+0x2b4>
 80003d8:	42a5      	cmp	r5, r4
 80003da:	f240 8085 	bls.w	80004e8 <__udivmoddi4+0x2b4>
 80003de:	f1a8 0802 	sub.w	r8, r8, #2
 80003e2:	4464      	add	r4, ip
 80003e4:	1b64      	subs	r4, r4, r5
 80003e6:	b29d      	uxth	r5, r3
 80003e8:	fbb4 f3f9 	udiv	r3, r4, r9
 80003ec:	fb09 4413 	mls	r4, r9, r3, r4
 80003f0:	ea45 4404 	orr.w	r4, r5, r4, lsl #16
 80003f4:	fb03 fe0e 	mul.w	lr, r3, lr
 80003f8:	45a6      	cmp	lr, r4
 80003fa:	d908      	bls.n	800040e <__udivmoddi4+0x1da>
 80003fc:	eb1c 0404 	adds.w	r4, ip, r4
 8000400:	f103 35ff 	add.w	r5, r3, #4294967295
 8000404:	d26c      	bcs.n	80004e0 <__udivmoddi4+0x2ac>
 8000406:	45a6      	cmp	lr, r4
 8000408:	d96a      	bls.n	80004e0 <__udivmoddi4+0x2ac>
 800040a:	3b02      	subs	r3, #2
 800040c:	4464      	add	r4, ip
 800040e:	ea43 4308 	orr.w	r3, r3, r8, lsl #16
 8000412:	fba3 9502 	umull	r9, r5, r3, r2
 8000416:	eba4 040e 	sub.w	r4, r4, lr
 800041a:	42ac      	cmp	r4, r5
 800041c:	46c8      	mov	r8, r9
 800041e:	46ae      	mov	lr, r5
 8000420:	d356      	bcc.n	80004d0 <__udivmoddi4+0x29c>
 8000422:	d053      	beq.n	80004cc <__udivmoddi4+0x298>
 8000424:	b156      	cbz	r6, 800043c <__udivmoddi4+0x208>
 8000426:	ebb0 0208 	subs.w	r2, r0, r8
 800042a:	eb64 040e 	sbc.w	r4, r4, lr
 800042e:	fa04 f707 	lsl.w	r7, r4, r7
 8000432:	40ca      	lsrs	r2, r1
 8000434:	40cc      	lsrs	r4, r1
 8000436:	4317      	orrs	r7, r2
 8000438:	e9c6 7400 	strd	r7, r4, [r6]
 800043c:	4618      	mov	r0, r3
 800043e:	2100      	movs	r1, #0
 8000440:	e8bd 87f0 	ldmia.w	sp!, {r4, r5, r6, r7, r8, r9, sl, pc}
 8000444:	f1c3 0120 	rsb	r1, r3, #32
 8000448:	fa02 fc03 	lsl.w	ip, r2, r3
 800044c:	fa20 f201 	lsr.w	r2, r0, r1
 8000450:	fa25 f101 	lsr.w	r1, r5, r1
 8000454:	409d      	lsls	r5, r3
 8000456:	432a      	orrs	r2, r5
 8000458:	ea4f 471c 	mov.w	r7, ip, lsr #16
 800045c:	fa1f fe8c 	uxth.w	lr, ip
 8000460:	fbb1 f0f7 	udiv	r0, r1, r7
 8000464:	fb07 1510 	mls	r5, r7, r0, r1
 8000468:	0c11      	lsrs	r1, r2, #16
 800046a:	ea41 4105 	orr.w	r1, r1, r5, lsl #16
 800046e:	fb00 f50e 	mul.w	r5, r0, lr
 8000472:	428d      	cmp	r5, r1
 8000474:	fa04 f403 	lsl.w	r4, r4, r3
 8000478:	d908      	bls.n	800048c <__udivmoddi4+0x258>
 800047a:	eb1c 0101 	adds.w	r1, ip, r1
 800047e:	f100 38ff 	add.w	r8, r0, #4294967295
 8000482:	d22f      	bcs.n	80004e4 <__udivmoddi4+0x2b0>
 8000484:	428d      	cmp	r5, r1
 8000486:	d92d      	bls.n	80004e4 <__udivmoddi4+0x2b0>
 8000488:	3802      	subs	r0, #2
 800048a:	4461      	add	r1, ip
 800048c:	1b49      	subs	r1, r1, r5
 800048e:	b292      	uxth	r2, r2
 8000490:	fbb1 f5f7 	udiv	r5, r1, r7
 8000494:	fb07 1115 	mls	r1, r7, r5, r1
 8000498:	ea42 4201 	orr.w	r2, r2, r1, lsl #16
 800049c:	fb05 f10e 	mul.w	r1, r5, lr
 80004a0:	4291      	cmp	r1, r2
 80004a2:	d908      	bls.n	80004b6 <__udivmoddi4+0x282>
 80004a4:	eb1c 0202 	adds.w	r2, ip, r2
 80004a8:	f105 38ff 	add.w	r8, r5, #4294967295
 80004ac:	d216      	bcs.n	80004dc <__udivmoddi4+0x2a8>
 80004ae:	4291      	cmp	r1, r2
 80004b0:	d914      	bls.n	80004dc <__udivmoddi4+0x2a8>
 80004b2:	3d02      	subs	r5, #2
 80004b4:	4462      	add	r2, ip
 80004b6:	1a52      	subs	r2, r2, r1
 80004b8:	ea45 4100 	orr.w	r1, r5, r0, lsl #16
 80004bc:	e738      	b.n	8000330 <__udivmoddi4+0xfc>
 80004be:	4631      	mov	r1, r6
 80004c0:	4630      	mov	r0, r6
 80004c2:	e708      	b.n	80002d6 <__udivmoddi4+0xa2>
 80004c4:	4639      	mov	r1, r7
 80004c6:	e6e6      	b.n	8000296 <__udivmoddi4+0x62>
 80004c8:	4610      	mov	r0, r2
 80004ca:	e6fb      	b.n	80002c4 <__udivmoddi4+0x90>
 80004cc:	4548      	cmp	r0, r9
 80004ce:	d2a9      	bcs.n	8000424 <__udivmoddi4+0x1f0>
 80004d0:	ebb9 0802 	subs.w	r8, r9, r2
 80004d4:	eb65 0e0c 	sbc.w	lr, r5, ip
 80004d8:	3b01      	subs	r3, #1
 80004da:	e7a3      	b.n	8000424 <__udivmoddi4+0x1f0>
 80004dc:	4645      	mov	r5, r8
 80004de:	e7ea      	b.n	80004b6 <__udivmoddi4+0x282>
 80004e0:	462b      	mov	r3, r5
 80004e2:	e794      	b.n	800040e <__udivmoddi4+0x1da>
 80004e4:	4640      	mov	r0, r8
 80004e6:	e7d1      	b.n	800048c <__udivmoddi4+0x258>
 80004e8:	46d0      	mov	r8, sl
 80004ea:	e77b      	b.n	80003e4 <__udivmoddi4+0x1b0>
 80004ec:	3d02      	subs	r5, #2
 80004ee:	4462      	add	r2, ip
 80004f0:	e732      	b.n	8000358 <__udivmoddi4+0x124>
 80004f2:	4608      	mov	r0, r1
 80004f4:	e70a      	b.n	800030c <__udivmoddi4+0xd8>
 80004f6:	4464      	add	r4, ip
 80004f8:	3802      	subs	r0, #2
 80004fa:	e742      	b.n	8000382 <__udivmoddi4+0x14e>

080004fc <__aeabi_idiv0>:
 80004fc:	4770      	bx	lr
 80004fe:	bf00      	nop

08000500 <SystemClock_Config>:
 8000500:	b510      	push	{r4, lr}
 8000502:	b094      	sub	sp, #80	; 0x50
 8000504:	2210      	movs	r2, #16
 8000506:	2100      	movs	r1, #0
 8000508:	a809      	add	r0, sp, #36	; 0x24
 800050a:	f002 fd23 	bl	8002f54 <memset>
 800050e:	2214      	movs	r2, #20
 8000510:	2100      	movs	r1, #0
 8000512:	a802      	add	r0, sp, #8
 8000514:	f002 fd1e 	bl	8002f54 <memset>
 8000518:	4b21      	ldr	r3, [pc, #132]	; (80005a0 <SystemClock_Config+0xa0>)
 800051a:	2100      	movs	r1, #0
 800051c:	9100      	str	r1, [sp, #0]
 800051e:	6c1a      	ldr	r2, [r3, #64]	; 0x40
 8000520:	f042 5280 	orr.w	r2, r2, #268435456	; 0x10000000
 8000524:	641a      	str	r2, [r3, #64]	; 0x40
 8000526:	6c1b      	ldr	r3, [r3, #64]	; 0x40
 8000528:	4a1e      	ldr	r2, [pc, #120]	; (80005a4 <SystemClock_Config+0xa4>)
 800052a:	f003 5380 	and.w	r3, r3, #268435456	; 0x10000000
 800052e:	9300      	str	r3, [sp, #0]
 8000530:	9b00      	ldr	r3, [sp, #0]
 8000532:	9101      	str	r1, [sp, #4]
 8000534:	6813      	ldr	r3, [r2, #0]
 8000536:	f423 4340 	bic.w	r3, r3, #49152	; 0xc000
 800053a:	f443 4380 	orr.w	r3, r3, #16384	; 0x4000
 800053e:	6013      	str	r3, [r2, #0]
 8000540:	6813      	ldr	r3, [r2, #0]
 8000542:	f403 4340 	and.w	r3, r3, #49152	; 0xc000
 8000546:	9301      	str	r3, [sp, #4]
 8000548:	9b01      	ldr	r3, [sp, #4]
 800054a:	2101      	movs	r1, #1
 800054c:	f44f 3380 	mov.w	r3, #65536	; 0x10000
 8000550:	f44f 0280 	mov.w	r2, #4194304	; 0x400000
 8000554:	e9cd 1307 	strd	r1, r3, [sp, #28]
 8000558:	2302      	movs	r3, #2
 800055a:	e9cd 320d 	strd	r3, r2, [sp, #52]	; 0x34
 800055e:	240f      	movs	r4, #15
 8000560:	2290      	movs	r2, #144	; 0x90
 8000562:	e9cd 420f 	strd	r4, r2, [sp, #60]	; 0x3c
 8000566:	a807      	add	r0, sp, #28
 8000568:	2205      	movs	r2, #5
 800056a:	e9cd 2312 	strd	r2, r3, [sp, #72]	; 0x48
 800056e:	9311      	str	r3, [sp, #68]	; 0x44
 8000570:	f001 fd04 	bl	8001f7c <HAL_RCC_OscConfig>
 8000574:	b108      	cbz	r0, 800057a <SystemClock_Config+0x7a>
 8000576:	b672      	cpsid	i
 8000578:	e7fe      	b.n	8000578 <SystemClock_Config+0x78>
 800057a:	2103      	movs	r1, #3
 800057c:	e9cd 1003 	strd	r1, r0, [sp, #12]
 8000580:	f44f 52a0 	mov.w	r2, #5120	; 0x1400
 8000584:	f44f 5380 	mov.w	r3, #4096	; 0x1000
 8000588:	a802      	add	r0, sp, #8
 800058a:	e9cd 2305 	strd	r2, r3, [sp, #20]
 800058e:	9402      	str	r4, [sp, #8]
 8000590:	f001 f9ca 	bl	8001928 <HAL_RCC_ClockConfig>
 8000594:	b108      	cbz	r0, 800059a <SystemClock_Config+0x9a>
 8000596:	b672      	cpsid	i
 8000598:	e7fe      	b.n	8000598 <SystemClock_Config+0x98>
 800059a:	b014      	add	sp, #80	; 0x50
 800059c:	bd10      	pop	{r4, pc}
 800059e:	bf00      	nop
 80005a0:	40023800 	.word	0x40023800
 80005a4:	40007000 	.word	0x40007000

080005a8 <main>:
 80005a8:	b580      	push	{r7, lr}
 80005aa:	b08e      	sub	sp, #56	; 0x38
 80005ac:	2400      	movs	r4, #0
 80005ae:	4da8      	ldr	r5, [pc, #672]	; (8000850 <main+0x2a8>)
 80005b0:	f000 fc54 	bl	8000e5c <HAL_Init>
 80005b4:	f7ff ffa4 	bl	8000500 <SystemClock_Config>
 80005b8:	2214      	movs	r2, #20
 80005ba:	2100      	movs	r1, #0
 80005bc:	a807      	add	r0, sp, #28
 80005be:	f002 fcc9 	bl	8002f54 <memset>
 80005c2:	9401      	str	r4, [sp, #4]
 80005c4:	6b2b      	ldr	r3, [r5, #48]	; 0x30
 80005c6:	48a3      	ldr	r0, [pc, #652]	; (8000854 <main+0x2ac>)
 80005c8:	f043 0380 	orr.w	r3, r3, #128	; 0x80
 80005cc:	632b      	str	r3, [r5, #48]	; 0x30
 80005ce:	6b2b      	ldr	r3, [r5, #48]	; 0x30
 80005d0:	f003 0380 	and.w	r3, r3, #128	; 0x80
 80005d4:	9301      	str	r3, [sp, #4]
 80005d6:	9b01      	ldr	r3, [sp, #4]
 80005d8:	9402      	str	r4, [sp, #8]
 80005da:	6b2b      	ldr	r3, [r5, #48]	; 0x30
 80005dc:	f043 0301 	orr.w	r3, r3, #1
 80005e0:	632b      	str	r3, [r5, #48]	; 0x30
 80005e2:	6b2b      	ldr	r3, [r5, #48]	; 0x30
 80005e4:	f003 0301 	and.w	r3, r3, #1
 80005e8:	9302      	str	r3, [sp, #8]
 80005ea:	9b02      	ldr	r3, [sp, #8]
 80005ec:	9403      	str	r4, [sp, #12]
 80005ee:	6b2b      	ldr	r3, [r5, #48]	; 0x30
 80005f0:	f043 0304 	orr.w	r3, r3, #4
 80005f4:	632b      	str	r3, [r5, #48]	; 0x30
 80005f6:	6b2b      	ldr	r3, [r5, #48]	; 0x30
 80005f8:	f003 0304 	and.w	r3, r3, #4
 80005fc:	9303      	str	r3, [sp, #12]
 80005fe:	9b03      	ldr	r3, [sp, #12]
 8000600:	9404      	str	r4, [sp, #16]
 8000602:	6b2b      	ldr	r3, [r5, #48]	; 0x30
 8000604:	f043 0302 	orr.w	r3, r3, #2
 8000608:	632b      	str	r3, [r5, #48]	; 0x30
 800060a:	6b2b      	ldr	r3, [r5, #48]	; 0x30
 800060c:	f003 0302 	and.w	r3, r3, #2
 8000610:	9304      	str	r3, [sp, #16]
 8000612:	2201      	movs	r2, #1
 8000614:	f44f 41e0 	mov.w	r1, #28672	; 0x7000
 8000618:	9b04      	ldr	r3, [sp, #16]
 800061a:	f001 f839 	bl	8001690 <HAL_GPIO_WritePin>
 800061e:	488d      	ldr	r0, [pc, #564]	; (8000854 <main+0x2ac>)
 8000620:	4622      	mov	r2, r4
 8000622:	f44f 4100 	mov.w	r1, #32768	; 0x8000
 8000626:	f001 f833 	bl	8001690 <HAL_GPIO_WritePin>
 800062a:	4622      	mov	r2, r4
 800062c:	488a      	ldr	r0, [pc, #552]	; (8000858 <main+0x2b0>)
 800062e:	f44f 61c0 	mov.w	r1, #1536	; 0x600
 8000632:	f001 f82d 	bl	8001690 <HAL_GPIO_WritePin>
 8000636:	2601      	movs	r6, #1
 8000638:	f44f 1304 	mov.w	r3, #2162688	; 0x210000
 800063c:	4886      	ldr	r0, [pc, #536]	; (8000858 <main+0x2b0>)
 800063e:	9609      	str	r6, [sp, #36]	; 0x24
 8000640:	a907      	add	r1, sp, #28
 8000642:	f04f 0810 	mov.w	r8, #16
 8000646:	2702      	movs	r7, #2
 8000648:	e9cd 8307 	strd	r8, r3, [sp, #28]
 800064c:	f000 ff4c 	bl	80014e8 <HAL_GPIO_Init>
 8000650:	f44f 43e0 	mov.w	r3, #28672	; 0x7000
 8000654:	487f      	ldr	r0, [pc, #508]	; (8000854 <main+0x2ac>)
 8000656:	9409      	str	r4, [sp, #36]	; 0x24
 8000658:	a907      	add	r1, sp, #28
 800065a:	e9cd 3607 	strd	r3, r6, [sp, #28]
 800065e:	970a      	str	r7, [sp, #40]	; 0x28
 8000660:	f000 ff42 	bl	80014e8 <HAL_GPIO_Init>
 8000664:	f44f 4300 	mov.w	r3, #32768	; 0x8000
 8000668:	487a      	ldr	r0, [pc, #488]	; (8000854 <main+0x2ac>)
 800066a:	a907      	add	r1, sp, #28
 800066c:	e9cd 3607 	strd	r3, r6, [sp, #28]
 8000670:	e9cd 4409 	strd	r4, r4, [sp, #36]	; 0x24
 8000674:	f000 ff38 	bl	80014e8 <HAL_GPIO_Init>
 8000678:	f44f 63c0 	mov.w	r3, #1536	; 0x600
 800067c:	4876      	ldr	r0, [pc, #472]	; (8000858 <main+0x2b0>)
 800067e:	a907      	add	r1, sp, #28
 8000680:	e9cd 3607 	strd	r3, r6, [sp, #28]
 8000684:	e9cd 4409 	strd	r4, r4, [sp, #36]	; 0x24
 8000688:	f000 ff2e 	bl	80014e8 <HAL_GPIO_Init>
 800068c:	9400      	str	r4, [sp, #0]
 800068e:	6b2b      	ldr	r3, [r5, #48]	; 0x30
 8000690:	f443 0380 	orr.w	r3, r3, #4194304	; 0x400000
 8000694:	632b      	str	r3, [r5, #48]	; 0x30
 8000696:	6b2b      	ldr	r3, [r5, #48]	; 0x30
 8000698:	f403 0380 	and.w	r3, r3, #4194304	; 0x400000
 800069c:	4622      	mov	r2, r4
 800069e:	4621      	mov	r1, r4
 80006a0:	9300      	str	r3, [sp, #0]
 80006a2:	2038      	movs	r0, #56	; 0x38
 80006a4:	9b00      	ldr	r3, [sp, #0]
 80006a6:	f000 fd6b 	bl	8001180 <HAL_NVIC_SetPriority>
 80006aa:	2038      	movs	r0, #56	; 0x38
 80006ac:	f000 fd9a 	bl	80011e4 <HAL_NVIC_EnableIRQ>
 80006b0:	4622      	mov	r2, r4
 80006b2:	4621      	mov	r1, r4
 80006b4:	203b      	movs	r0, #59	; 0x3b
 80006b6:	f000 fd63 	bl	8001180 <HAL_NVIC_SetPriority>
 80006ba:	203b      	movs	r0, #59	; 0x3b
 80006bc:	f000 fd92 	bl	80011e4 <HAL_NVIC_EnableIRQ>
 80006c0:	4866      	ldr	r0, [pc, #408]	; (800085c <main+0x2b4>)
 80006c2:	f04f 45a0 	mov.w	r5, #1342177280	; 0x50000000
 80006c6:	2306      	movs	r3, #6
 80006c8:	e9c0 5300 	strd	r5, r3, [r0]
 80006cc:	e9c0 7403 	strd	r7, r4, [r0, #12]
 80006d0:	e9c0 7406 	strd	r7, r4, [r0, #24]
 80006d4:	e9c0 4408 	strd	r4, r4, [r0, #32]
 80006d8:	e9c0 440b 	strd	r4, r4, [r0, #44]	; 0x2c
 80006dc:	f001 f886 	bl	80017ec <HAL_PCD_Init>
 80006e0:	4605      	mov	r5, r0
 80006e2:	b108      	cbz	r0, 80006e8 <main+0x140>
 80006e4:	b672      	cpsid	i
 80006e6:	e7fe      	b.n	80006e6 <main+0x13e>
 80006e8:	4601      	mov	r1, r0
 80006ea:	4642      	mov	r2, r8
 80006ec:	a807      	add	r0, sp, #28
 80006ee:	f002 fc31 	bl	8002f54 <memset>
 80006f2:	4c5b      	ldr	r4, [pc, #364]	; (8000860 <main+0x2b8>)
 80006f4:	4b5b      	ldr	r3, [pc, #364]	; (8000864 <main+0x2bc>)
 80006f6:	60a5      	str	r5, [r4, #8]
 80006f8:	e9c4 3500 	strd	r3, r5, [r4]
 80006fc:	4620      	mov	r0, r4
 80006fe:	4b5a      	ldr	r3, [pc, #360]	; (8000868 <main+0x2c0>)
 8000700:	6125      	str	r5, [r4, #16]
 8000702:	7626      	strb	r6, [r4, #24]
 8000704:	f884 5020 	strb.w	r5, [r4, #32]
 8000708:	62e5      	str	r5, [r4, #44]	; 0x2c
 800070a:	62a3      	str	r3, [r4, #40]	; 0x28
 800070c:	60e5      	str	r5, [r4, #12]
 800070e:	61e6      	str	r6, [r4, #28]
 8000710:	f884 6030 	strb.w	r6, [r4, #48]	; 0x30
 8000714:	6166      	str	r6, [r4, #20]
 8000716:	f000 fbe1 	bl	8000edc <HAL_ADC_Init>
 800071a:	b108      	cbz	r0, 8000720 <main+0x178>
 800071c:	b672      	cpsid	i
 800071e:	e7fe      	b.n	800071e <main+0x176>
 8000720:	9009      	str	r0, [sp, #36]	; 0x24
 8000722:	a907      	add	r1, sp, #28
 8000724:	4620      	mov	r0, r4
 8000726:	e9cd 6607 	strd	r6, r6, [sp, #28]
 800072a:	f000 fc7d 	bl	8001028 <HAL_ADC_ConfigChannel>
 800072e:	b108      	cbz	r0, 8000734 <main+0x18c>
 8000730:	b672      	cpsid	i
 8000732:	e7fe      	b.n	8000732 <main+0x18a>
 8000734:	4b4d      	ldr	r3, [pc, #308]	; (800086c <main+0x2c4>)
 8000736:	4a4e      	ldr	r2, [pc, #312]	; (8000870 <main+0x2c8>)
 8000738:	4d4e      	ldr	r5, [pc, #312]	; (8000874 <main+0x2cc>)
 800073a:	6218      	str	r0, [r3, #32]
 800073c:	f44f 4480 	mov.w	r4, #16384	; 0x4000
 8000740:	e9c3 0002 	strd	r0, r0, [r3, #8]
 8000744:	e9c3 4004 	strd	r4, r0, [r3, #16]
 8000748:	e9c3 0006 	strd	r0, r0, [r3, #24]
 800074c:	4618      	mov	r0, r3
 800074e:	e9c3 2500 	strd	r2, r5, [r3]
 8000752:	f000 ffa3 	bl	800169c <HAL_I2C_Init>
 8000756:	b108      	cbz	r0, 800075c <main+0x1b4>
 8000758:	b672      	cpsid	i
 800075a:	e7fe      	b.n	800075a <main+0x1b2>
 800075c:	4b46      	ldr	r3, [pc, #280]	; (8000878 <main+0x2d0>)
 800075e:	4a47      	ldr	r2, [pc, #284]	; (800087c <main+0x2d4>)
 8000760:	6218      	str	r0, [r3, #32]
 8000762:	e9c3 0002 	strd	r0, r0, [r3, #8]
 8000766:	e9c3 4004 	strd	r4, r0, [r3, #16]
 800076a:	e9c3 0006 	strd	r0, r0, [r3, #24]
 800076e:	4618      	mov	r0, r3
 8000770:	e9c3 2500 	strd	r2, r5, [r3]
 8000774:	f000 ff92 	bl	800169c <HAL_I2C_Init>
 8000778:	b108      	cbz	r0, 800077e <main+0x1d6>
 800077a:	b672      	cpsid	i
 800077c:	e7fe      	b.n	800077c <main+0x1d4>
 800077e:	4b40      	ldr	r3, [pc, #256]	; (8000880 <main+0x2d8>)
 8000780:	4c40      	ldr	r4, [pc, #256]	; (8000884 <main+0x2dc>)
 8000782:	6298      	str	r0, [r3, #40]	; 0x28
 8000784:	f44f 7282 	mov.w	r2, #260	; 0x104
 8000788:	e9c3 4200 	strd	r4, r2, [r3]
 800078c:	f44f 7200 	mov.w	r2, #512	; 0x200
 8000790:	e9c3 2006 	strd	r2, r0, [r3, #24]
 8000794:	e9c3 0002 	strd	r0, r0, [r3, #8]
 8000798:	e9c3 0004 	strd	r0, r0, [r3, #16]
 800079c:	e9c3 0008 	strd	r0, r0, [r3, #32]
 80007a0:	220a      	movs	r2, #10
 80007a2:	4618      	mov	r0, r3
 80007a4:	62da      	str	r2, [r3, #44]	; 0x2c
 80007a6:	f001 fdb5 	bl	8002314 <HAL_SPI_Init>
 80007aa:	b108      	cbz	r0, 80007b0 <main+0x208>
 80007ac:	b672      	cpsid	i
 80007ae:	e7fe      	b.n	80007ae <main+0x206>
 80007b0:	4835      	ldr	r0, [pc, #212]	; (8000888 <main+0x2e0>)
 80007b2:	4b36      	ldr	r3, [pc, #216]	; (800088c <main+0x2e4>)
 80007b4:	6003      	str	r3, [r0, #0]
 80007b6:	f000 fd23 	bl	8001200 <HAL_CRC_Init>
 80007ba:	4604      	mov	r4, r0
 80007bc:	b108      	cbz	r0, 80007c2 <main+0x21a>
 80007be:	b672      	cpsid	i
 80007c0:	e7fe      	b.n	80007c0 <main+0x218>
 80007c2:	221c      	movs	r2, #28
 80007c4:	e9cd 0005 	strd	r0, r0, [sp, #20]
 80007c8:	4601      	mov	r1, r0
 80007ca:	eb0d 0002 	add.w	r0, sp, r2
 80007ce:	f002 fbc1 	bl	8002f54 <memset>
 80007d2:	4d2f      	ldr	r5, [pc, #188]	; (8000890 <main+0x2e8>)
 80007d4:	4b2f      	ldr	r3, [pc, #188]	; (8000894 <main+0x2ec>)
 80007d6:	60ac      	str	r4, [r5, #8]
 80007d8:	e9c5 3400 	strd	r3, r4, [r5]
 80007dc:	4628      	mov	r0, r5
 80007de:	f241 3387 	movw	r3, #4999	; 0x1387
 80007e2:	e9c5 3403 	strd	r3, r4, [r5, #12]
 80007e6:	61ac      	str	r4, [r5, #24]
 80007e8:	f002 f87a 	bl	80028e0 <HAL_TIM_PWM_Init>
 80007ec:	b108      	cbz	r0, 80007f2 <main+0x24a>
 80007ee:	b672      	cpsid	i
 80007f0:	e7fe      	b.n	80007f0 <main+0x248>
 80007f2:	e9cd 0005 	strd	r0, r0, [sp, #20]
 80007f6:	a905      	add	r1, sp, #20
 80007f8:	4628      	mov	r0, r5
 80007fa:	f002 f92d 	bl	8002a58 <HAL_TIMEx_MasterConfigSynchronization>
 80007fe:	b108      	cbz	r0, 8000804 <main+0x25c>
 8000800:	b672      	cpsid	i
 8000802:	e7fe      	b.n	8000802 <main+0x25a>
 8000804:	2160      	movs	r1, #96	; 0x60
 8000806:	f640 13c3 	movw	r3, #2499	; 0x9c3
 800080a:	e9cd 1307 	strd	r1, r3, [sp, #28]
 800080e:	9009      	str	r0, [sp, #36]	; 0x24
 8000810:	900b      	str	r0, [sp, #44]	; 0x2c
 8000812:	2204      	movs	r2, #4
 8000814:	a907      	add	r1, sp, #28
 8000816:	4628      	mov	r0, r5
 8000818:	f002 f8c4 	bl	80029a4 <HAL_TIM_PWM_ConfigChannel>
 800081c:	b108      	cbz	r0, 8000822 <main+0x27a>
 800081e:	b672      	cpsid	i
 8000820:	e7fe      	b.n	8000820 <main+0x278>
 8000822:	481b      	ldr	r0, [pc, #108]	; (8000890 <main+0x2e8>)
 8000824:	f000 f9d2 	bl	8000bcc <HAL_TIM_MspPostInit>
 8000828:	481b      	ldr	r0, [pc, #108]	; (8000898 <main+0x2f0>)
 800082a:	4a1c      	ldr	r2, [pc, #112]	; (800089c <main+0x2f4>)
 800082c:	f44f 33e1 	mov.w	r3, #115200	; 0x1c200
 8000830:	e9c0 2300 	strd	r2, r3, [r0]
 8000834:	2300      	movs	r3, #0
 8000836:	220c      	movs	r2, #12
 8000838:	e9c0 3302 	strd	r3, r3, [r0, #8]
 800083c:	e9c0 2305 	strd	r2, r3, [r0, #20]
 8000840:	6103      	str	r3, [r0, #16]
 8000842:	61c3      	str	r3, [r0, #28]
 8000844:	f002 f9a6 	bl	8002b94 <HAL_UART_Init>
 8000848:	b108      	cbz	r0, 800084e <main+0x2a6>
 800084a:	b672      	cpsid	i
 800084c:	e7fe      	b.n	800084c <main+0x2a4>
 800084e:	e7fe      	b.n	800084e <main+0x2a6>
 8000850:	40023800 	.word	0x40023800
 8000854:	40020400 	.word	0x40020400
 8000858:	40020000 	.word	0x40020000
 800085c:	200001e0 	.word	0x200001e0
 8000860:	20000028 	.word	0x20000028
 8000864:	40012000 	.word	0x40012000
 8000868:	0f000001 	.word	0x0f000001
 800086c:	2000018c 	.word	0x2000018c
 8000870:	40005c00 	.word	0x40005c00
 8000874:	000186a0 	.word	0x000186a0
 8000878:	20000138 	.word	0x20000138
 800087c:	40005800 	.word	0x40005800
 8000880:	200006ec 	.word	0x200006ec
 8000884:	40013000 	.word	0x40013000
 8000888:	20000070 	.word	0x20000070
 800088c:	40023000 	.word	0x40023000
 8000890:	20000744 	.word	0x20000744
 8000894:	40000400 	.word	0x40000400
 8000898:	2000078c 	.word	0x2000078c
 800089c:	40004800 	.word	0x40004800

080008a0 <HAL_TIM_PeriodElapsedCallback>:
 80008a0:	6802      	ldr	r2, [r0, #0]
 80008a2:	4b03      	ldr	r3, [pc, #12]	; (80008b0 <HAL_TIM_PeriodElapsedCallback+0x10>)
 80008a4:	429a      	cmp	r2, r3
 80008a6:	d101      	bne.n	80008ac <HAL_TIM_PeriodElapsedCallback+0xc>
 80008a8:	f000 baf2 	b.w	8000e90 <HAL_IncTick>
 80008ac:	4770      	bx	lr
 80008ae:	bf00      	nop
 80008b0:	40010000 	.word	0x40010000

080008b4 <Error_Handler>:
 80008b4:	b672      	cpsid	i
 80008b6:	e7fe      	b.n	80008b6 <Error_Handler+0x2>

080008b8 <HAL_MspInit>:
 80008b8:	b082      	sub	sp, #8
 80008ba:	4b0c      	ldr	r3, [pc, #48]	; (80008ec <HAL_MspInit+0x34>)
 80008bc:	2100      	movs	r1, #0
 80008be:	9100      	str	r1, [sp, #0]
 80008c0:	6c5a      	ldr	r2, [r3, #68]	; 0x44
 80008c2:	f442 4280 	orr.w	r2, r2, #16384	; 0x4000
 80008c6:	645a      	str	r2, [r3, #68]	; 0x44
 80008c8:	6c5a      	ldr	r2, [r3, #68]	; 0x44
 80008ca:	f402 4280 	and.w	r2, r2, #16384	; 0x4000
 80008ce:	9200      	str	r2, [sp, #0]
 80008d0:	9a00      	ldr	r2, [sp, #0]
 80008d2:	9101      	str	r1, [sp, #4]
 80008d4:	6c1a      	ldr	r2, [r3, #64]	; 0x40
 80008d6:	f042 5280 	orr.w	r2, r2, #268435456	; 0x10000000
 80008da:	641a      	str	r2, [r3, #64]	; 0x40
 80008dc:	6c1b      	ldr	r3, [r3, #64]	; 0x40
 80008de:	f003 5380 	and.w	r3, r3, #268435456	; 0x10000000
 80008e2:	9301      	str	r3, [sp, #4]
 80008e4:	9b01      	ldr	r3, [sp, #4]
 80008e6:	b002      	add	sp, #8
 80008e8:	4770      	bx	lr
 80008ea:	bf00      	nop
 80008ec:	40023800 	.word	0x40023800

080008f0 <HAL_ADC_MspInit>:
 80008f0:	b570      	push	{r4, r5, r6, lr}
 80008f2:	4606      	mov	r6, r0
 80008f4:	b088      	sub	sp, #32
 80008f6:	2214      	movs	r2, #20
 80008f8:	2100      	movs	r1, #0
 80008fa:	a803      	add	r0, sp, #12
 80008fc:	f002 fb2a 	bl	8002f54 <memset>
 8000900:	6832      	ldr	r2, [r6, #0]
 8000902:	4b20      	ldr	r3, [pc, #128]	; (8000984 <HAL_ADC_MspInit+0x94>)
 8000904:	429a      	cmp	r2, r3
 8000906:	d13a      	bne.n	800097e <HAL_ADC_MspInit+0x8e>
 8000908:	f503 338c 	add.w	r3, r3, #71680	; 0x11800
 800090c:	2500      	movs	r5, #0
 800090e:	9501      	str	r5, [sp, #4]
 8000910:	6c5a      	ldr	r2, [r3, #68]	; 0x44
 8000912:	481d      	ldr	r0, [pc, #116]	; (8000988 <HAL_ADC_MspInit+0x98>)
 8000914:	4c1d      	ldr	r4, [pc, #116]	; (800098c <HAL_ADC_MspInit+0x9c>)
 8000916:	f442 7280 	orr.w	r2, r2, #256	; 0x100
 800091a:	645a      	str	r2, [r3, #68]	; 0x44
 800091c:	6c5a      	ldr	r2, [r3, #68]	; 0x44
 800091e:	f402 7280 	and.w	r2, r2, #256	; 0x100
 8000922:	9201      	str	r2, [sp, #4]
 8000924:	9a01      	ldr	r2, [sp, #4]
 8000926:	9502      	str	r5, [sp, #8]
 8000928:	6b1a      	ldr	r2, [r3, #48]	; 0x30
 800092a:	f042 0201 	orr.w	r2, r2, #1
 800092e:	631a      	str	r2, [r3, #48]	; 0x30
 8000930:	6b1b      	ldr	r3, [r3, #48]	; 0x30
 8000932:	f003 0301 	and.w	r3, r3, #1
 8000936:	9302      	str	r3, [sp, #8]
 8000938:	9b02      	ldr	r3, [sp, #8]
 800093a:	2202      	movs	r2, #2
 800093c:	2303      	movs	r3, #3
 800093e:	a903      	add	r1, sp, #12
 8000940:	e9cd 2303 	strd	r2, r3, [sp, #12]
 8000944:	f000 fdd0 	bl	80014e8 <HAL_GPIO_Init>
 8000948:	4b11      	ldr	r3, [pc, #68]	; (8000990 <HAL_ADC_MspInit+0xa0>)
 800094a:	f44f 6180 	mov.w	r1, #1024	; 0x400
 800094e:	e9c4 3500 	strd	r3, r5, [r4]
 8000952:	f44f 6300 	mov.w	r3, #2048	; 0x800
 8000956:	f44f 5000 	mov.w	r0, #8192	; 0x2000
 800095a:	e9c4 1304 	strd	r1, r3, [r4, #16]
 800095e:	f44f 7380 	mov.w	r3, #256	; 0x100
 8000962:	e9c4 0306 	strd	r0, r3, [r4, #24]
 8000966:	4620      	mov	r0, r4
 8000968:	e9c4 5502 	strd	r5, r5, [r4, #8]
 800096c:	e9c4 5508 	strd	r5, r5, [r4, #32]
 8000970:	f000 fc6c 	bl	800124c <HAL_DMA_Init>
 8000974:	b108      	cbz	r0, 800097a <HAL_ADC_MspInit+0x8a>
 8000976:	f7ff ff9d 	bl	80008b4 <Error_Handler>
 800097a:	63b4      	str	r4, [r6, #56]	; 0x38
 800097c:	63a6      	str	r6, [r4, #56]	; 0x38
 800097e:	b008      	add	sp, #32
 8000980:	bd70      	pop	{r4, r5, r6, pc}
 8000982:	bf00      	nop
 8000984:	40012000 	.word	0x40012000
 8000988:	40020000 	.word	0x40020000
 800098c:	20000078 	.word	0x20000078
 8000990:	40026410 	.word	0x40026410

08000994 <HAL_CRC_MspInit>:
 8000994:	6802      	ldr	r2, [r0, #0]
 8000996:	4b09      	ldr	r3, [pc, #36]	; (80009bc <HAL_CRC_MspInit+0x28>)
 8000998:	429a      	cmp	r2, r3
 800099a:	b082      	sub	sp, #8
 800099c:	d10b      	bne.n	80009b6 <HAL_CRC_MspInit+0x22>
 800099e:	2300      	movs	r3, #0
 80009a0:	9301      	str	r3, [sp, #4]
 80009a2:	4b07      	ldr	r3, [pc, #28]	; (80009c0 <HAL_CRC_MspInit+0x2c>)
 80009a4:	6b1a      	ldr	r2, [r3, #48]	; 0x30
 80009a6:	f442 5280 	orr.w	r2, r2, #4096	; 0x1000
 80009aa:	631a      	str	r2, [r3, #48]	; 0x30
 80009ac:	6b1b      	ldr	r3, [r3, #48]	; 0x30
 80009ae:	f403 5380 	and.w	r3, r3, #4096	; 0x1000
 80009b2:	9301      	str	r3, [sp, #4]
 80009b4:	9b01      	ldr	r3, [sp, #4]
 80009b6:	b002      	add	sp, #8
 80009b8:	4770      	bx	lr
 80009ba:	bf00      	nop
 80009bc:	40023000 	.word	0x40023000
 80009c0:	40023800 	.word	0x40023800

080009c4 <HAL_I2C_MspInit>:
 80009c4:	e92d 41f0 	stmdb	sp!, {r4, r5, r6, r7, r8, lr}
 80009c8:	4604      	mov	r4, r0
 80009ca:	b08c      	sub	sp, #48	; 0x30
 80009cc:	2214      	movs	r2, #20
 80009ce:	2100      	movs	r1, #0
 80009d0:	a807      	add	r0, sp, #28
 80009d2:	f002 fabf 	bl	8002f54 <memset>
 80009d6:	6823      	ldr	r3, [r4, #0]
 80009d8:	4a3d      	ldr	r2, [pc, #244]	; (8000ad0 <HAL_I2C_MspInit+0x10c>)
 80009da:	4293      	cmp	r3, r2
 80009dc:	d13b      	bne.n	8000a56 <HAL_I2C_MspInit+0x92>
 80009de:	4c3d      	ldr	r4, [pc, #244]	; (8000ad4 <HAL_I2C_MspInit+0x110>)
 80009e0:	483d      	ldr	r0, [pc, #244]	; (8000ad8 <HAL_I2C_MspInit+0x114>)
 80009e2:	2500      	movs	r5, #0
 80009e4:	9501      	str	r5, [sp, #4]
 80009e6:	6b23      	ldr	r3, [r4, #48]	; 0x30
 80009e8:	f043 0302 	orr.w	r3, r3, #2
 80009ec:	6323      	str	r3, [r4, #48]	; 0x30
 80009ee:	6b23      	ldr	r3, [r4, #48]	; 0x30
 80009f0:	f003 0302 	and.w	r3, r3, #2
 80009f4:	9301      	str	r3, [sp, #4]
 80009f6:	9b01      	ldr	r3, [sp, #4]
 80009f8:	9502      	str	r5, [sp, #8]
 80009fa:	6b23      	ldr	r3, [r4, #48]	; 0x30
 80009fc:	f043 0304 	orr.w	r3, r3, #4
 8000a00:	6323      	str	r3, [r4, #48]	; 0x30
 8000a02:	6b23      	ldr	r3, [r4, #48]	; 0x30
 8000a04:	f003 0304 	and.w	r3, r3, #4
 8000a08:	9302      	str	r3, [sp, #8]
 8000a0a:	9b02      	ldr	r3, [sp, #8]
 8000a0c:	f04f 0812 	mov.w	r8, #18
 8000a10:	f44f 6380 	mov.w	r3, #1024	; 0x400
 8000a14:	2703      	movs	r7, #3
 8000a16:	2604      	movs	r6, #4
 8000a18:	a907      	add	r1, sp, #28
 8000a1a:	e9cd 3807 	strd	r3, r8, [sp, #28]
 8000a1e:	e9cd 760a 	strd	r7, r6, [sp, #40]	; 0x28
 8000a22:	f000 fd61 	bl	80014e8 <HAL_GPIO_Init>
 8000a26:	f44f 5380 	mov.w	r3, #4096	; 0x1000
 8000a2a:	482c      	ldr	r0, [pc, #176]	; (8000adc <HAL_I2C_MspInit+0x118>)
 8000a2c:	960b      	str	r6, [sp, #44]	; 0x2c
 8000a2e:	a907      	add	r1, sp, #28
 8000a30:	e9cd 3807 	strd	r3, r8, [sp, #28]
 8000a34:	e9cd 5709 	strd	r5, r7, [sp, #36]	; 0x24
 8000a38:	f000 fd56 	bl	80014e8 <HAL_GPIO_Init>
 8000a3c:	9503      	str	r5, [sp, #12]
 8000a3e:	6c23      	ldr	r3, [r4, #64]	; 0x40
 8000a40:	f443 0380 	orr.w	r3, r3, #4194304	; 0x400000
 8000a44:	6423      	str	r3, [r4, #64]	; 0x40
 8000a46:	6c23      	ldr	r3, [r4, #64]	; 0x40
 8000a48:	f403 0380 	and.w	r3, r3, #4194304	; 0x400000
 8000a4c:	9303      	str	r3, [sp, #12]
 8000a4e:	9b03      	ldr	r3, [sp, #12]
 8000a50:	b00c      	add	sp, #48	; 0x30
 8000a52:	e8bd 81f0 	ldmia.w	sp!, {r4, r5, r6, r7, r8, pc}
 8000a56:	4a22      	ldr	r2, [pc, #136]	; (8000ae0 <HAL_I2C_MspInit+0x11c>)
 8000a58:	4293      	cmp	r3, r2
 8000a5a:	d1f9      	bne.n	8000a50 <HAL_I2C_MspInit+0x8c>
 8000a5c:	4c1d      	ldr	r4, [pc, #116]	; (8000ad4 <HAL_I2C_MspInit+0x110>)
 8000a5e:	481f      	ldr	r0, [pc, #124]	; (8000adc <HAL_I2C_MspInit+0x118>)
 8000a60:	2500      	movs	r5, #0
 8000a62:	9504      	str	r5, [sp, #16]
 8000a64:	6b23      	ldr	r3, [r4, #48]	; 0x30
 8000a66:	f043 0304 	orr.w	r3, r3, #4
 8000a6a:	6323      	str	r3, [r4, #48]	; 0x30
 8000a6c:	6b23      	ldr	r3, [r4, #48]	; 0x30
 8000a6e:	f003 0304 	and.w	r3, r3, #4
 8000a72:	9304      	str	r3, [sp, #16]
 8000a74:	9b04      	ldr	r3, [sp, #16]
 8000a76:	9505      	str	r5, [sp, #20]
 8000a78:	6b23      	ldr	r3, [r4, #48]	; 0x30
 8000a7a:	f043 0301 	orr.w	r3, r3, #1
 8000a7e:	6323      	str	r3, [r4, #48]	; 0x30
 8000a80:	6b23      	ldr	r3, [r4, #48]	; 0x30
 8000a82:	f003 0301 	and.w	r3, r3, #1
 8000a86:	9305      	str	r3, [sp, #20]
 8000a88:	9b05      	ldr	r3, [sp, #20]
 8000a8a:	f04f 0812 	mov.w	r8, #18
 8000a8e:	f44f 7300 	mov.w	r3, #512	; 0x200
 8000a92:	2703      	movs	r7, #3
 8000a94:	2604      	movs	r6, #4
 8000a96:	a907      	add	r1, sp, #28
 8000a98:	e9cd 3807 	strd	r3, r8, [sp, #28]
 8000a9c:	e9cd 760a 	strd	r7, r6, [sp, #40]	; 0x28
 8000aa0:	f000 fd22 	bl	80014e8 <HAL_GPIO_Init>
 8000aa4:	f44f 7380 	mov.w	r3, #256	; 0x100
 8000aa8:	480e      	ldr	r0, [pc, #56]	; (8000ae4 <HAL_I2C_MspInit+0x120>)
 8000aaa:	960b      	str	r6, [sp, #44]	; 0x2c
 8000aac:	a907      	add	r1, sp, #28
 8000aae:	e9cd 3807 	strd	r3, r8, [sp, #28]
 8000ab2:	e9cd 5709 	strd	r5, r7, [sp, #36]	; 0x24
 8000ab6:	f000 fd17 	bl	80014e8 <HAL_GPIO_Init>
 8000aba:	9506      	str	r5, [sp, #24]
 8000abc:	6c23      	ldr	r3, [r4, #64]	; 0x40
 8000abe:	f443 0300 	orr.w	r3, r3, #8388608	; 0x800000
 8000ac2:	6423      	str	r3, [r4, #64]	; 0x40
 8000ac4:	6c23      	ldr	r3, [r4, #64]	; 0x40
 8000ac6:	f403 0300 	and.w	r3, r3, #8388608	; 0x800000
 8000aca:	9306      	str	r3, [sp, #24]
 8000acc:	9b06      	ldr	r3, [sp, #24]
 8000ace:	e7bf      	b.n	8000a50 <HAL_I2C_MspInit+0x8c>
 8000ad0:	40005800 	.word	0x40005800
 8000ad4:	40023800 	.word	0x40023800
 8000ad8:	40020400 	.word	0x40020400
 8000adc:	40020800 	.word	0x40020800
 8000ae0:	40005c00 	.word	0x40005c00
 8000ae4:	40020000 	.word	0x40020000

08000ae8 <HAL_SPI_MspInit>:
 8000ae8:	b570      	push	{r4, r5, r6, lr}
 8000aea:	4606      	mov	r6, r0
 8000aec:	b088      	sub	sp, #32
 8000aee:	2214      	movs	r2, #20
 8000af0:	2100      	movs	r1, #0
 8000af2:	a803      	add	r0, sp, #12
 8000af4:	f002 fa2e 	bl	8002f54 <memset>
 8000af8:	6832      	ldr	r2, [r6, #0]
 8000afa:	4b24      	ldr	r3, [pc, #144]	; (8000b8c <HAL_SPI_MspInit+0xa4>)
 8000afc:	429a      	cmp	r2, r3
 8000afe:	d143      	bne.n	8000b88 <HAL_SPI_MspInit+0xa0>
 8000b00:	2500      	movs	r5, #0
 8000b02:	f503 3384 	add.w	r3, r3, #67584	; 0x10800
 8000b06:	9501      	str	r5, [sp, #4]
 8000b08:	6c5a      	ldr	r2, [r3, #68]	; 0x44
 8000b0a:	4821      	ldr	r0, [pc, #132]	; (8000b90 <HAL_SPI_MspInit+0xa8>)
 8000b0c:	4c21      	ldr	r4, [pc, #132]	; (8000b94 <HAL_SPI_MspInit+0xac>)
 8000b0e:	f442 5280 	orr.w	r2, r2, #4096	; 0x1000
 8000b12:	645a      	str	r2, [r3, #68]	; 0x44
 8000b14:	6c5a      	ldr	r2, [r3, #68]	; 0x44
 8000b16:	f402 5280 	and.w	r2, r2, #4096	; 0x1000
 8000b1a:	9201      	str	r2, [sp, #4]
 8000b1c:	9a01      	ldr	r2, [sp, #4]
 8000b1e:	9502      	str	r5, [sp, #8]
 8000b20:	6b1a      	ldr	r2, [r3, #48]	; 0x30
 8000b22:	f042 0201 	orr.w	r2, r2, #1
 8000b26:	631a      	str	r2, [r3, #48]	; 0x30
 8000b28:	6b1b      	ldr	r3, [r3, #48]	; 0x30
 8000b2a:	f003 0301 	and.w	r3, r3, #1
 8000b2e:	9302      	str	r3, [sp, #8]
 8000b30:	9b02      	ldr	r3, [sp, #8]
 8000b32:	22e0      	movs	r2, #224	; 0xe0
 8000b34:	2302      	movs	r3, #2
 8000b36:	e9cd 2303 	strd	r2, r3, [sp, #12]
 8000b3a:	2103      	movs	r1, #3
 8000b3c:	2305      	movs	r3, #5
 8000b3e:	e9cd 1306 	strd	r1, r3, [sp, #24]
 8000b42:	a903      	add	r1, sp, #12
 8000b44:	f000 fcd0 	bl	80014e8 <HAL_GPIO_Init>
 8000b48:	4813      	ldr	r0, [pc, #76]	; (8000b98 <HAL_SPI_MspInit+0xb0>)
 8000b4a:	f04f 63c0 	mov.w	r3, #100663296	; 0x6000000
 8000b4e:	e9c4 0300 	strd	r0, r3, [r4]
 8000b52:	2340      	movs	r3, #64	; 0x40
 8000b54:	e9c4 3502 	strd	r3, r5, [r4, #8]
 8000b58:	4620      	mov	r0, r4
 8000b5a:	f44f 6380 	mov.w	r3, #1024	; 0x400
 8000b5e:	e9c4 3504 	strd	r3, r5, [r4, #16]
 8000b62:	e9c4 5506 	strd	r5, r5, [r4, #24]
 8000b66:	e9c4 5508 	strd	r5, r5, [r4, #32]
 8000b6a:	f000 fb6f 	bl	800124c <HAL_DMA_Init>
 8000b6e:	b108      	cbz	r0, 8000b74 <HAL_SPI_MspInit+0x8c>
 8000b70:	f7ff fea0 	bl	80008b4 <Error_Handler>
 8000b74:	2200      	movs	r2, #0
 8000b76:	2023      	movs	r0, #35	; 0x23
 8000b78:	64b4      	str	r4, [r6, #72]	; 0x48
 8000b7a:	4611      	mov	r1, r2
 8000b7c:	63a6      	str	r6, [r4, #56]	; 0x38
 8000b7e:	f000 faff 	bl	8001180 <HAL_NVIC_SetPriority>
 8000b82:	2023      	movs	r0, #35	; 0x23
 8000b84:	f000 fb2e 	bl	80011e4 <HAL_NVIC_EnableIRQ>
 8000b88:	b008      	add	sp, #32
 8000b8a:	bd70      	pop	{r4, r5, r6, pc}
 8000b8c:	40013000 	.word	0x40013000
 8000b90:	40020000 	.word	0x40020000
 8000b94:	200000d8 	.word	0x200000d8
 8000b98:	40026458 	.word	0x40026458

08000b9c <HAL_TIM_PWM_MspInit>:
 8000b9c:	6802      	ldr	r2, [r0, #0]
 8000b9e:	4b09      	ldr	r3, [pc, #36]	; (8000bc4 <HAL_TIM_PWM_MspInit+0x28>)
 8000ba0:	429a      	cmp	r2, r3
 8000ba2:	b082      	sub	sp, #8
 8000ba4:	d10b      	bne.n	8000bbe <HAL_TIM_PWM_MspInit+0x22>
 8000ba6:	2300      	movs	r3, #0
 8000ba8:	9301      	str	r3, [sp, #4]
 8000baa:	4b07      	ldr	r3, [pc, #28]	; (8000bc8 <HAL_TIM_PWM_MspInit+0x2c>)
 8000bac:	6c1a      	ldr	r2, [r3, #64]	; 0x40
 8000bae:	f042 0202 	orr.w	r2, r2, #2
 8000bb2:	641a      	str	r2, [r3, #64]	; 0x40
 8000bb4:	6c1b      	ldr	r3, [r3, #64]	; 0x40
 8000bb6:	f003 0302 	and.w	r3, r3, #2
 8000bba:	9301      	str	r3, [sp, #4]
 8000bbc:	9b01      	ldr	r3, [sp, #4]
 8000bbe:	b002      	add	sp, #8
 8000bc0:	4770      	bx	lr
 8000bc2:	bf00      	nop
 8000bc4:	40000400 	.word	0x40000400
 8000bc8:	40023800 	.word	0x40023800

08000bcc <HAL_TIM_MspPostInit>:
 8000bcc:	b510      	push	{r4, lr}
 8000bce:	4604      	mov	r4, r0
 8000bd0:	b086      	sub	sp, #24
 8000bd2:	2214      	movs	r2, #20
 8000bd4:	2100      	movs	r1, #0
 8000bd6:	a801      	add	r0, sp, #4
 8000bd8:	f002 f9bc 	bl	8002f54 <memset>
 8000bdc:	6822      	ldr	r2, [r4, #0]
 8000bde:	4b0d      	ldr	r3, [pc, #52]	; (8000c14 <HAL_TIM_MspPostInit+0x48>)
 8000be0:	429a      	cmp	r2, r3
 8000be2:	d114      	bne.n	8000c0e <HAL_TIM_MspPostInit+0x42>
 8000be4:	2300      	movs	r3, #0
 8000be6:	9300      	str	r3, [sp, #0]
 8000be8:	4b0b      	ldr	r3, [pc, #44]	; (8000c18 <HAL_TIM_MspPostInit+0x4c>)
 8000bea:	480c      	ldr	r0, [pc, #48]	; (8000c1c <HAL_TIM_MspPostInit+0x50>)
 8000bec:	6b1a      	ldr	r2, [r3, #48]	; 0x30
 8000bee:	f042 0204 	orr.w	r2, r2, #4
 8000bf2:	631a      	str	r2, [r3, #48]	; 0x30
 8000bf4:	6b1b      	ldr	r3, [r3, #48]	; 0x30
 8000bf6:	f003 0304 	and.w	r3, r3, #4
 8000bfa:	9300      	str	r3, [sp, #0]
 8000bfc:	9b00      	ldr	r3, [sp, #0]
 8000bfe:	2280      	movs	r2, #128	; 0x80
 8000c00:	2302      	movs	r3, #2
 8000c02:	a901      	add	r1, sp, #4
 8000c04:	e9cd 2301 	strd	r2, r3, [sp, #4]
 8000c08:	9305      	str	r3, [sp, #20]
 8000c0a:	f000 fc6d 	bl	80014e8 <HAL_GPIO_Init>
 8000c0e:	b006      	add	sp, #24
 8000c10:	bd10      	pop	{r4, pc}
 8000c12:	bf00      	nop
 8000c14:	40000400 	.word	0x40000400
 8000c18:	40023800 	.word	0x40023800
 8000c1c:	40020800 	.word	0x40020800

08000c20 <HAL_UART_MspInit>:
 8000c20:	b510      	push	{r4, lr}
 8000c22:	4604      	mov	r4, r0
 8000c24:	b088      	sub	sp, #32
 8000c26:	2214      	movs	r2, #20
 8000c28:	2100      	movs	r1, #0
 8000c2a:	a803      	add	r0, sp, #12
 8000c2c:	f002 f992 	bl	8002f54 <memset>
 8000c30:	6822      	ldr	r2, [r4, #0]
 8000c32:	4b14      	ldr	r3, [pc, #80]	; (8000c84 <HAL_UART_MspInit+0x64>)
 8000c34:	429a      	cmp	r2, r3
 8000c36:	d123      	bne.n	8000c80 <HAL_UART_MspInit+0x60>
 8000c38:	f503 33f8 	add.w	r3, r3, #126976	; 0x1f000
 8000c3c:	2100      	movs	r1, #0
 8000c3e:	9101      	str	r1, [sp, #4]
 8000c40:	6c1a      	ldr	r2, [r3, #64]	; 0x40
 8000c42:	4811      	ldr	r0, [pc, #68]	; (8000c88 <HAL_UART_MspInit+0x68>)
 8000c44:	f442 2280 	orr.w	r2, r2, #262144	; 0x40000
 8000c48:	641a      	str	r2, [r3, #64]	; 0x40
 8000c4a:	6c1a      	ldr	r2, [r3, #64]	; 0x40
 8000c4c:	f402 2280 	and.w	r2, r2, #262144	; 0x40000
 8000c50:	9201      	str	r2, [sp, #4]
 8000c52:	9a01      	ldr	r2, [sp, #4]
 8000c54:	9102      	str	r1, [sp, #8]
 8000c56:	6b1a      	ldr	r2, [r3, #48]	; 0x30
 8000c58:	f042 0204 	orr.w	r2, r2, #4
 8000c5c:	631a      	str	r2, [r3, #48]	; 0x30
 8000c5e:	6b1b      	ldr	r3, [r3, #48]	; 0x30
 8000c60:	f003 0304 	and.w	r3, r3, #4
 8000c64:	9302      	str	r3, [sp, #8]
 8000c66:	9b02      	ldr	r3, [sp, #8]
 8000c68:	f44f 6284 	mov.w	r2, #1056	; 0x420
 8000c6c:	2302      	movs	r3, #2
 8000c6e:	2103      	movs	r1, #3
 8000c70:	e9cd 2303 	strd	r2, r3, [sp, #12]
 8000c74:	2307      	movs	r3, #7
 8000c76:	e9cd 1306 	strd	r1, r3, [sp, #24]
 8000c7a:	a903      	add	r1, sp, #12
 8000c7c:	f000 fc34 	bl	80014e8 <HAL_GPIO_Init>
 8000c80:	b008      	add	sp, #32
 8000c82:	bd10      	pop	{r4, pc}
 8000c84:	40004800 	.word	0x40004800
 8000c88:	40020800 	.word	0x40020800

08000c8c <HAL_PCD_MspInit>:
 8000c8c:	b530      	push	{r4, r5, lr}
 8000c8e:	b09f      	sub	sp, #124	; 0x7c
 8000c90:	4604      	mov	r4, r0
 8000c92:	2214      	movs	r2, #20
 8000c94:	2100      	movs	r1, #0
 8000c96:	a802      	add	r0, sp, #8
 8000c98:	f002 f95c 	bl	8002f54 <memset>
 8000c9c:	225c      	movs	r2, #92	; 0x5c
 8000c9e:	2100      	movs	r1, #0
 8000ca0:	a807      	add	r0, sp, #28
 8000ca2:	f002 f957 	bl	8002f54 <memset>
 8000ca6:	6823      	ldr	r3, [r4, #0]
 8000ca8:	f1b3 4fa0 	cmp.w	r3, #1342177280	; 0x50000000
 8000cac:	d130      	bne.n	8000d10 <HAL_PCD_MspInit+0x84>
 8000cae:	f44f 7380 	mov.w	r3, #256	; 0x100
 8000cb2:	a807      	add	r0, sp, #28
 8000cb4:	9307      	str	r3, [sp, #28]
 8000cb6:	f000 ff0f 	bl	8001ad8 <HAL_RCCEx_PeriphCLKConfig>
 8000cba:	b108      	cbz	r0, 8000cc0 <HAL_PCD_MspInit+0x34>
 8000cbc:	f7ff fdfa 	bl	80008b4 <Error_Handler>
 8000cc0:	4c14      	ldr	r4, [pc, #80]	; (8000d14 <HAL_PCD_MspInit+0x88>)
 8000cc2:	4815      	ldr	r0, [pc, #84]	; (8000d18 <HAL_PCD_MspInit+0x8c>)
 8000cc4:	2500      	movs	r5, #0
 8000cc6:	9500      	str	r5, [sp, #0]
 8000cc8:	6b23      	ldr	r3, [r4, #48]	; 0x30
 8000cca:	f043 0301 	orr.w	r3, r3, #1
 8000cce:	6323      	str	r3, [r4, #48]	; 0x30
 8000cd0:	6b23      	ldr	r3, [r4, #48]	; 0x30
 8000cd2:	9504      	str	r5, [sp, #16]
 8000cd4:	f003 0301 	and.w	r3, r3, #1
 8000cd8:	9300      	str	r3, [sp, #0]
 8000cda:	9b00      	ldr	r3, [sp, #0]
 8000cdc:	f44f 52c0 	mov.w	r2, #6144	; 0x1800
 8000ce0:	2302      	movs	r3, #2
 8000ce2:	e9cd 2302 	strd	r2, r3, [sp, #8]
 8000ce6:	2103      	movs	r1, #3
 8000ce8:	230a      	movs	r3, #10
 8000cea:	e9cd 1305 	strd	r1, r3, [sp, #20]
 8000cee:	a902      	add	r1, sp, #8
 8000cf0:	f000 fbfa 	bl	80014e8 <HAL_GPIO_Init>
 8000cf4:	6b63      	ldr	r3, [r4, #52]	; 0x34
 8000cf6:	f043 0380 	orr.w	r3, r3, #128	; 0x80
 8000cfa:	6363      	str	r3, [r4, #52]	; 0x34
 8000cfc:	9501      	str	r5, [sp, #4]
 8000cfe:	6c63      	ldr	r3, [r4, #68]	; 0x44
 8000d00:	f443 4380 	orr.w	r3, r3, #16384	; 0x4000
 8000d04:	6463      	str	r3, [r4, #68]	; 0x44
 8000d06:	6c63      	ldr	r3, [r4, #68]	; 0x44
 8000d08:	f403 4380 	and.w	r3, r3, #16384	; 0x4000
 8000d0c:	9301      	str	r3, [sp, #4]
 8000d0e:	9b01      	ldr	r3, [sp, #4]
 8000d10:	b01f      	add	sp, #124	; 0x7c
 8000d12:	bd30      	pop	{r4, r5, pc}
 8000d14:	40023800 	.word	0x40023800
 8000d18:	40020000 	.word	0x40020000

08000d1c <HAL_InitTick>:
 8000d1c:	b570      	push	{r4, r5, r6, lr}
 8000d1e:	b088      	sub	sp, #32
 8000d20:	2400      	movs	r4, #0
 8000d22:	4b1e      	ldr	r3, [pc, #120]	; (8000d9c <HAL_InitTick+0x80>)
 8000d24:	9402      	str	r4, [sp, #8]
 8000d26:	6c5a      	ldr	r2, [r3, #68]	; 0x44
 8000d28:	4d1d      	ldr	r5, [pc, #116]	; (8000da0 <HAL_InitTick+0x84>)
 8000d2a:	f042 0201 	orr.w	r2, r2, #1
 8000d2e:	645a      	str	r2, [r3, #68]	; 0x44
 8000d30:	6c5b      	ldr	r3, [r3, #68]	; 0x44
 8000d32:	f003 0301 	and.w	r3, r3, #1
 8000d36:	a901      	add	r1, sp, #4
 8000d38:	9302      	str	r3, [sp, #8]
 8000d3a:	4606      	mov	r6, r0
 8000d3c:	a803      	add	r0, sp, #12
 8000d3e:	9b02      	ldr	r3, [sp, #8]
 8000d40:	f000 feac 	bl	8001a9c <HAL_RCC_GetClockConfig>
 8000d44:	f000 fe9a 	bl	8001a7c <HAL_RCC_GetPCLK2Freq>
 8000d48:	4b16      	ldr	r3, [pc, #88]	; (8000da4 <HAL_InitTick+0x88>)
 8000d4a:	602b      	str	r3, [r5, #0]
 8000d4c:	f240 33e7 	movw	r3, #999	; 0x3e7
 8000d50:	4a15      	ldr	r2, [pc, #84]	; (8000da8 <HAL_InitTick+0x8c>)
 8000d52:	60eb      	str	r3, [r5, #12]
 8000d54:	0043      	lsls	r3, r0, #1
 8000d56:	4628      	mov	r0, r5
 8000d58:	fbb3 f3f2 	udiv	r3, r3, r2
 8000d5c:	3b01      	subs	r3, #1
 8000d5e:	612c      	str	r4, [r5, #16]
 8000d60:	60ac      	str	r4, [r5, #8]
 8000d62:	61ac      	str	r4, [r5, #24]
 8000d64:	606b      	str	r3, [r5, #4]
 8000d66:	f001 fd8f 	bl	8002888 <HAL_TIM_Base_Init>
 8000d6a:	4604      	mov	r4, r0
 8000d6c:	b980      	cbnz	r0, 8000d90 <HAL_InitTick+0x74>
 8000d6e:	4628      	mov	r0, r5
 8000d70:	f001 fc44 	bl	80025fc <HAL_TIM_Base_Start_IT>
 8000d74:	4604      	mov	r4, r0
 8000d76:	b958      	cbnz	r0, 8000d90 <HAL_InitTick+0x74>
 8000d78:	2019      	movs	r0, #25
 8000d7a:	f000 fa33 	bl	80011e4 <HAL_NVIC_EnableIRQ>
 8000d7e:	2e0f      	cmp	r6, #15
 8000d80:	d809      	bhi.n	8000d96 <HAL_InitTick+0x7a>
 8000d82:	4622      	mov	r2, r4
 8000d84:	4631      	mov	r1, r6
 8000d86:	2019      	movs	r0, #25
 8000d88:	f000 f9fa 	bl	8001180 <HAL_NVIC_SetPriority>
 8000d8c:	4b07      	ldr	r3, [pc, #28]	; (8000dac <HAL_InitTick+0x90>)
 8000d8e:	601e      	str	r6, [r3, #0]
 8000d90:	4620      	mov	r0, r4
 8000d92:	b008      	add	sp, #32
 8000d94:	bd70      	pop	{r4, r5, r6, pc}
 8000d96:	2401      	movs	r4, #1
 8000d98:	e7fa      	b.n	8000d90 <HAL_InitTick+0x74>
 8000d9a:	bf00      	nop
 8000d9c:	40023800 	.word	0x40023800
 8000da0:	200007d0 	.word	0x200007d0
 8000da4:	40010000 	.word	0x40010000
 8000da8:	000f4240 	.word	0x000f4240
 8000dac:	20000008 	.word	0x20000008

08000db0 <NMI_Handler>:
 8000db0:	e7fe      	b.n	8000db0 <NMI_Handler>

08000db2 <HardFault_Handler>:
 8000db2:	e7fe      	b.n	8000db2 <HardFault_Handler>

08000db4 <MemManage_Handler>:
 8000db4:	e7fe      	b.n	8000db4 <MemManage_Handler>

08000db6 <BusFault_Handler>:
 8000db6:	e7fe      	b.n	8000db6 <BusFault_Handler>

08000db8 <UsageFault_Handler>:
 8000db8:	e7fe      	b.n	8000db8 <UsageFault_Handler>

08000dba <SVC_Handler>:
 8000dba:	4770      	bx	lr

08000dbc <DebugMon_Handler>:
 8000dbc:	4770      	bx	lr

08000dbe <PendSV_Handler>:
 8000dbe:	4770      	bx	lr

08000dc0 <SysTick_Handler>:
 8000dc0:	4770      	bx	lr
	...

08000dc4 <TIM1_UP_TIM10_IRQHandler>:
 8000dc4:	4801      	ldr	r0, [pc, #4]	; (8000dcc <TIM1_UP_TIM10_IRQHandler+0x8>)
 8000dc6:	f001 bc57 	b.w	8002678 <HAL_TIM_IRQHandler>
 8000dca:	bf00      	nop
 8000dcc:	200007d0 	.word	0x200007d0

08000dd0 <SPI1_IRQHandler>:
 8000dd0:	4801      	ldr	r0, [pc, #4]	; (8000dd8 <SPI1_IRQHandler+0x8>)
 8000dd2:	f001 bafd 	b.w	80023d0 <HAL_SPI_IRQHandler>
 8000dd6:	bf00      	nop
 8000dd8:	200006ec 	.word	0x200006ec

08000ddc <DMA2_Stream0_IRQHandler>:
 8000ddc:	4801      	ldr	r0, [pc, #4]	; (8000de4 <DMA2_Stream0_IRQHandler+0x8>)
 8000dde:	f000 bac5 	b.w	800136c <HAL_DMA_IRQHandler>
 8000de2:	bf00      	nop
 8000de4:	20000078 	.word	0x20000078

08000de8 <DMA2_Stream3_IRQHandler>:
 8000de8:	4801      	ldr	r0, [pc, #4]	; (8000df0 <DMA2_Stream3_IRQHandler+0x8>)
 8000dea:	f000 babf 	b.w	800136c <HAL_DMA_IRQHandler>
 8000dee:	bf00      	nop
 8000df0:	200000d8 	.word	0x200000d8

08000df4 <SystemInit>:
 8000df4:	4a03      	ldr	r2, [pc, #12]	; (8000e04 <SystemInit+0x10>)
 8000df6:	f8d2 3088 	ldr.w	r3, [r2, #136]	; 0x88
 8000dfa:	f443 0370 	orr.w	r3, r3, #15728640	; 0xf00000
 8000dfe:	f8c2 3088 	str.w	r3, [r2, #136]	; 0x88
 8000e02:	4770      	bx	lr
 8000e04:	e000ed00 	.word	0xe000ed00

08000e08 <Reset_Handler>:
 8000e08:	f8df d034 	ldr.w	sp, [pc, #52]	; 8000e40 <LoopFillZerobss+0x12>
 8000e0c:	480d      	ldr	r0, [pc, #52]	; (8000e44 <LoopFillZerobss+0x16>)
 8000e0e:	490e      	ldr	r1, [pc, #56]	; (8000e48 <LoopFillZerobss+0x1a>)
 8000e10:	4a0e      	ldr	r2, [pc, #56]	; (8000e4c <LoopFillZerobss+0x1e>)
 8000e12:	2300      	movs	r3, #0
 8000e14:	e002      	b.n	8000e1c <LoopCopyDataInit>

08000e16 <CopyDataInit>:
 8000e16:	58d4      	ldr	r4, [r2, r3]
 8000e18:	50c4      	str	r4, [r0, r3]
 8000e1a:	3304      	adds	r3, #4

08000e1c <LoopCopyDataInit>:
 8000e1c:	18c4      	adds	r4, r0, r3
 8000e1e:	428c      	cmp	r4, r1
 8000e20:	d3f9      	bcc.n	8000e16 <CopyDataInit>
 8000e22:	4a0b      	ldr	r2, [pc, #44]	; (8000e50 <LoopFillZerobss+0x22>)
 8000e24:	4c0b      	ldr	r4, [pc, #44]	; (8000e54 <LoopFillZerobss+0x26>)
 8000e26:	2300      	movs	r3, #0
 8000e28:	e001      	b.n	8000e2e <LoopFillZerobss>

08000e2a <FillZerobss>:
 8000e2a:	6013      	str	r3, [r2, #0]
 8000e2c:	3204      	adds	r2, #4

08000e2e <LoopFillZerobss>:
 8000e2e:	42a2      	cmp	r2, r4
 8000e30:	d3fb      	bcc.n	8000e2a <FillZerobss>
 8000e32:	f7ff ffdf 	bl	8000df4 <SystemInit>
 8000e36:	f002 f895 	bl	8002f64 <__libc_init_array>
 8000e3a:	f7ff fbb5 	bl	80005a8 <main>
 8000e3e:	4770      	bx	lr
 8000e40:	20020000 	.word	0x20020000
 8000e44:	20000000 	.word	0x20000000
 8000e48:	2000000c 	.word	0x2000000c
 8000e4c:	08002ff4 	.word	0x08002ff4
 8000e50:	2000000c 	.word	0x2000000c
 8000e54:	2000081c 	.word	0x2000081c

08000e58 <ADC_IRQHandler>:
 8000e58:	e7fe      	b.n	8000e58 <ADC_IRQHandler>
	...

08000e5c <HAL_Init>:
 8000e5c:	b508      	push	{r3, lr}
 8000e5e:	4b0b      	ldr	r3, [pc, #44]	; (8000e8c <HAL_Init+0x30>)
 8000e60:	681a      	ldr	r2, [r3, #0]
 8000e62:	f442 7200 	orr.w	r2, r2, #512	; 0x200
 8000e66:	601a      	str	r2, [r3, #0]
 8000e68:	681a      	ldr	r2, [r3, #0]
 8000e6a:	f442 6280 	orr.w	r2, r2, #1024	; 0x400
 8000e6e:	601a      	str	r2, [r3, #0]
 8000e70:	681a      	ldr	r2, [r3, #0]
 8000e72:	f442 7280 	orr.w	r2, r2, #256	; 0x100
 8000e76:	601a      	str	r2, [r3, #0]
 8000e78:	2003      	movs	r0, #3
 8000e7a:	f000 f96f 	bl	800115c <HAL_NVIC_SetPriorityGrouping>
 8000e7e:	200f      	movs	r0, #15
 8000e80:	f7ff ff4c 	bl	8000d1c <HAL_InitTick>
 8000e84:	f7ff fd18 	bl	80008b8 <HAL_MspInit>
 8000e88:	2000      	movs	r0, #0
 8000e8a:	bd08      	pop	{r3, pc}
 8000e8c:	40023c00 	.word	0x40023c00

08000e90 <HAL_IncTick>:
 8000e90:	4a03      	ldr	r2, [pc, #12]	; (8000ea0 <HAL_IncTick+0x10>)
 8000e92:	4b04      	ldr	r3, [pc, #16]	; (8000ea4 <HAL_IncTick+0x14>)
 8000e94:	6811      	ldr	r1, [r2, #0]
 8000e96:	781b      	ldrb	r3, [r3, #0]
 8000e98:	440b      	add	r3, r1
 8000e9a:	6013      	str	r3, [r2, #0]
 8000e9c:	4770      	bx	lr
 8000e9e:	bf00      	nop
 8000ea0:	20000818 	.word	0x20000818
 8000ea4:	20000004 	.word	0x20000004

08000ea8 <HAL_GetTick>:
 8000ea8:	4b01      	ldr	r3, [pc, #4]	; (8000eb0 <HAL_GetTick+0x8>)
 8000eaa:	6818      	ldr	r0, [r3, #0]
 8000eac:	4770      	bx	lr
 8000eae:	bf00      	nop
 8000eb0:	20000818 	.word	0x20000818

08000eb4 <HAL_Delay>:
 8000eb4:	b538      	push	{r3, r4, r5, lr}
 8000eb6:	4604      	mov	r4, r0
 8000eb8:	f7ff fff6 	bl	8000ea8 <HAL_GetTick>
 8000ebc:	1c63      	adds	r3, r4, #1
 8000ebe:	bf1c      	itt	ne
 8000ec0:	4b05      	ldrne	r3, [pc, #20]	; (8000ed8 <HAL_Delay+0x24>)
 8000ec2:	781b      	ldrbne	r3, [r3, #0]
 8000ec4:	4605      	mov	r5, r0
 8000ec6:	bf18      	it	ne
 8000ec8:	18e4      	addne	r4, r4, r3
 8000eca:	f7ff ffed 	bl	8000ea8 <HAL_GetTick>
 8000ece:	1b43      	subs	r3, r0, r5
 8000ed0:	42a3      	cmp	r3, r4
 8000ed2:	d3fa      	bcc.n	8000eca <HAL_Delay+0x16>
 8000ed4:	bd38      	pop	{r3, r4, r5, pc}
 8000ed6:	bf00      	nop
 8000ed8:	20000004 	.word	0x20000004

08000edc <HAL_ADC_Init>:
 8000edc:	b538      	push	{r3, r4, r5, lr}
 8000ede:	4604      	mov	r4, r0
 8000ee0:	2800      	cmp	r0, #0
 8000ee2:	f000 809b 	beq.w	800101c <HAL_ADC_Init+0x140>
 8000ee6:	6c05      	ldr	r5, [r0, #64]	; 0x40
 8000ee8:	b925      	cbnz	r5, 8000ef4 <HAL_ADC_Init+0x18>
 8000eea:	f7ff fd01 	bl	80008f0 <HAL_ADC_MspInit>
 8000eee:	6465      	str	r5, [r4, #68]	; 0x44
 8000ef0:	f884 503c 	strb.w	r5, [r4, #60]	; 0x3c
 8000ef4:	6c23      	ldr	r3, [r4, #64]	; 0x40
 8000ef6:	06db      	lsls	r3, r3, #27
 8000ef8:	f100 808e 	bmi.w	8001018 <HAL_ADC_Init+0x13c>
 8000efc:	6c23      	ldr	r3, [r4, #64]	; 0x40
 8000efe:	f423 5388 	bic.w	r3, r3, #4352	; 0x1100
 8000f02:	f023 0302 	bic.w	r3, r3, #2
 8000f06:	f043 0302 	orr.w	r3, r3, #2
 8000f0a:	6423      	str	r3, [r4, #64]	; 0x40
 8000f0c:	4b44      	ldr	r3, [pc, #272]	; (8001020 <HAL_ADC_Init+0x144>)
 8000f0e:	685a      	ldr	r2, [r3, #4]
 8000f10:	f422 3240 	bic.w	r2, r2, #196608	; 0x30000
 8000f14:	605a      	str	r2, [r3, #4]
 8000f16:	685a      	ldr	r2, [r3, #4]
 8000f18:	6861      	ldr	r1, [r4, #4]
 8000f1a:	430a      	orrs	r2, r1
 8000f1c:	605a      	str	r2, [r3, #4]
 8000f1e:	6823      	ldr	r3, [r4, #0]
 8000f20:	6921      	ldr	r1, [r4, #16]
 8000f22:	685a      	ldr	r2, [r3, #4]
 8000f24:	f422 7280 	bic.w	r2, r2, #256	; 0x100
 8000f28:	605a      	str	r2, [r3, #4]
 8000f2a:	685a      	ldr	r2, [r3, #4]
 8000f2c:	ea42 2201 	orr.w	r2, r2, r1, lsl #8
 8000f30:	605a      	str	r2, [r3, #4]
 8000f32:	685a      	ldr	r2, [r3, #4]
 8000f34:	68a1      	ldr	r1, [r4, #8]
 8000f36:	f022 7240 	bic.w	r2, r2, #50331648	; 0x3000000
 8000f3a:	605a      	str	r2, [r3, #4]
 8000f3c:	685a      	ldr	r2, [r3, #4]
 8000f3e:	430a      	orrs	r2, r1
 8000f40:	605a      	str	r2, [r3, #4]
 8000f42:	689a      	ldr	r2, [r3, #8]
 8000f44:	68e1      	ldr	r1, [r4, #12]
 8000f46:	f422 6200 	bic.w	r2, r2, #2048	; 0x800
 8000f4a:	609a      	str	r2, [r3, #8]
 8000f4c:	689a      	ldr	r2, [r3, #8]
 8000f4e:	430a      	orrs	r2, r1
 8000f50:	609a      	str	r2, [r3, #8]
 8000f52:	4934      	ldr	r1, [pc, #208]	; (8001024 <HAL_ADC_Init+0x148>)
 8000f54:	6aa2      	ldr	r2, [r4, #40]	; 0x28
 8000f56:	428a      	cmp	r2, r1
 8000f58:	d052      	beq.n	8001000 <HAL_ADC_Init+0x124>
 8000f5a:	6899      	ldr	r1, [r3, #8]
 8000f5c:	f021 6170 	bic.w	r1, r1, #251658240	; 0xf000000
 8000f60:	6099      	str	r1, [r3, #8]
 8000f62:	6899      	ldr	r1, [r3, #8]
 8000f64:	430a      	orrs	r2, r1
 8000f66:	609a      	str	r2, [r3, #8]
 8000f68:	689a      	ldr	r2, [r3, #8]
 8000f6a:	6ae1      	ldr	r1, [r4, #44]	; 0x2c
 8000f6c:	f022 5240 	bic.w	r2, r2, #805306368	; 0x30000000
 8000f70:	609a      	str	r2, [r3, #8]
 8000f72:	689a      	ldr	r2, [r3, #8]
 8000f74:	430a      	orrs	r2, r1
 8000f76:	609a      	str	r2, [r3, #8]
 8000f78:	689a      	ldr	r2, [r3, #8]
 8000f7a:	f022 0202 	bic.w	r2, r2, #2
 8000f7e:	609a      	str	r2, [r3, #8]
 8000f80:	689a      	ldr	r2, [r3, #8]
 8000f82:	7e21      	ldrb	r1, [r4, #24]
 8000f84:	ea42 0241 	orr.w	r2, r2, r1, lsl #1
 8000f88:	609a      	str	r2, [r3, #8]
 8000f8a:	f894 2020 	ldrb.w	r2, [r4, #32]
 8000f8e:	2a00      	cmp	r2, #0
 8000f90:	d03e      	beq.n	8001010 <HAL_ADC_Init+0x134>
 8000f92:	685a      	ldr	r2, [r3, #4]
 8000f94:	6a61      	ldr	r1, [r4, #36]	; 0x24
 8000f96:	f442 6200 	orr.w	r2, r2, #2048	; 0x800
 8000f9a:	605a      	str	r2, [r3, #4]
 8000f9c:	685a      	ldr	r2, [r3, #4]
 8000f9e:	f422 4260 	bic.w	r2, r2, #57344	; 0xe000
 8000fa2:	605a      	str	r2, [r3, #4]
 8000fa4:	685a      	ldr	r2, [r3, #4]
 8000fa6:	3901      	subs	r1, #1
 8000fa8:	ea42 3241 	orr.w	r2, r2, r1, lsl #13
 8000fac:	605a      	str	r2, [r3, #4]
 8000fae:	6ada      	ldr	r2, [r3, #44]	; 0x2c
 8000fb0:	69e1      	ldr	r1, [r4, #28]
 8000fb2:	f422 0270 	bic.w	r2, r2, #15728640	; 0xf00000
 8000fb6:	62da      	str	r2, [r3, #44]	; 0x2c
 8000fb8:	6ada      	ldr	r2, [r3, #44]	; 0x2c
 8000fba:	3901      	subs	r1, #1
 8000fbc:	ea42 5201 	orr.w	r2, r2, r1, lsl #20
 8000fc0:	62da      	str	r2, [r3, #44]	; 0x2c
 8000fc2:	689a      	ldr	r2, [r3, #8]
 8000fc4:	f422 7200 	bic.w	r2, r2, #512	; 0x200
 8000fc8:	609a      	str	r2, [r3, #8]
 8000fca:	689a      	ldr	r2, [r3, #8]
 8000fcc:	f894 1030 	ldrb.w	r1, [r4, #48]	; 0x30
 8000fd0:	ea42 2241 	orr.w	r2, r2, r1, lsl #9
 8000fd4:	609a      	str	r2, [r3, #8]
 8000fd6:	689a      	ldr	r2, [r3, #8]
 8000fd8:	6961      	ldr	r1, [r4, #20]
 8000fda:	f422 6280 	bic.w	r2, r2, #1024	; 0x400
 8000fde:	609a      	str	r2, [r3, #8]
 8000fe0:	689a      	ldr	r2, [r3, #8]
 8000fe2:	2000      	movs	r0, #0
 8000fe4:	ea42 2281 	orr.w	r2, r2, r1, lsl #10
 8000fe8:	609a      	str	r2, [r3, #8]
 8000fea:	6460      	str	r0, [r4, #68]	; 0x44
 8000fec:	6c23      	ldr	r3, [r4, #64]	; 0x40
 8000fee:	f023 0303 	bic.w	r3, r3, #3
 8000ff2:	f043 0301 	orr.w	r3, r3, #1
 8000ff6:	6423      	str	r3, [r4, #64]	; 0x40
 8000ff8:	2300      	movs	r3, #0
 8000ffa:	f884 303c 	strb.w	r3, [r4, #60]	; 0x3c
 8000ffe:	bd38      	pop	{r3, r4, r5, pc}
 8001000:	689a      	ldr	r2, [r3, #8]
 8001002:	f022 6270 	bic.w	r2, r2, #251658240	; 0xf000000
 8001006:	609a      	str	r2, [r3, #8]
 8001008:	689a      	ldr	r2, [r3, #8]
 800100a:	f022 5240 	bic.w	r2, r2, #805306368	; 0x30000000
 800100e:	e7b2      	b.n	8000f76 <HAL_ADC_Init+0x9a>
 8001010:	685a      	ldr	r2, [r3, #4]
 8001012:	f422 6200 	bic.w	r2, r2, #2048	; 0x800
 8001016:	e7c9      	b.n	8000fac <HAL_ADC_Init+0xd0>
 8001018:	2001      	movs	r0, #1
 800101a:	e7ed      	b.n	8000ff8 <HAL_ADC_Init+0x11c>
 800101c:	2001      	movs	r0, #1
 800101e:	e7ee      	b.n	8000ffe <HAL_ADC_Init+0x122>
 8001020:	40012300 	.word	0x40012300
 8001024:	0f000001 	.word	0x0f000001

08001028 <HAL_ADC_ConfigChannel>:
 8001028:	b5f7      	push	{r0, r1, r2, r4, r5, r6, r7, lr}
 800102a:	2300      	movs	r3, #0
 800102c:	9301      	str	r3, [sp, #4]
 800102e:	f890 303c 	ldrb.w	r3, [r0, #60]	; 0x3c
 8001032:	2b01      	cmp	r3, #1
 8001034:	d067      	beq.n	8001106 <HAL_ADC_ConfigChannel+0xde>
 8001036:	2301      	movs	r3, #1
 8001038:	f880 303c 	strb.w	r3, [r0, #60]	; 0x3c
 800103c:	680d      	ldr	r5, [r1, #0]
 800103e:	6803      	ldr	r3, [r0, #0]
 8001040:	688e      	ldr	r6, [r1, #8]
 8001042:	2d09      	cmp	r5, #9
 8001044:	b2ac      	uxth	r4, r5
 8001046:	d934      	bls.n	80010b2 <HAL_ADC_ConfigChannel+0x8a>
 8001048:	eb04 0244 	add.w	r2, r4, r4, lsl #1
 800104c:	68df      	ldr	r7, [r3, #12]
 800104e:	3a1e      	subs	r2, #30
 8001050:	f04f 0c07 	mov.w	ip, #7
 8001054:	fa0c fc02 	lsl.w	ip, ip, r2
 8001058:	ea27 070c 	bic.w	r7, r7, ip
 800105c:	60df      	str	r7, [r3, #12]
 800105e:	68df      	ldr	r7, [r3, #12]
 8001060:	fa06 f202 	lsl.w	r2, r6, r2
 8001064:	433a      	orrs	r2, r7
 8001066:	60da      	str	r2, [r3, #12]
 8001068:	6849      	ldr	r1, [r1, #4]
 800106a:	2906      	cmp	r1, #6
 800106c:	eb01 0281 	add.w	r2, r1, r1, lsl #2
 8001070:	d82e      	bhi.n	80010d0 <HAL_ADC_ConfigChannel+0xa8>
 8001072:	6b59      	ldr	r1, [r3, #52]	; 0x34
 8001074:	3a05      	subs	r2, #5
 8001076:	261f      	movs	r6, #31
 8001078:	4096      	lsls	r6, r2
 800107a:	ea21 0106 	bic.w	r1, r1, r6
 800107e:	6359      	str	r1, [r3, #52]	; 0x34
 8001080:	6b59      	ldr	r1, [r3, #52]	; 0x34
 8001082:	fa04 f202 	lsl.w	r2, r4, r2
 8001086:	430a      	orrs	r2, r1
 8001088:	635a      	str	r2, [r3, #52]	; 0x34
 800108a:	4a2f      	ldr	r2, [pc, #188]	; (8001148 <HAL_ADC_ConfigChannel+0x120>)
 800108c:	4293      	cmp	r3, r2
 800108e:	d10a      	bne.n	80010a6 <HAL_ADC_ConfigChannel+0x7e>
 8001090:	2d12      	cmp	r5, #18
 8001092:	d13a      	bne.n	800110a <HAL_ADC_ConfigChannel+0xe2>
 8001094:	4b2d      	ldr	r3, [pc, #180]	; (800114c <HAL_ADC_ConfigChannel+0x124>)
 8001096:	685a      	ldr	r2, [r3, #4]
 8001098:	f422 0200 	bic.w	r2, r2, #8388608	; 0x800000
 800109c:	605a      	str	r2, [r3, #4]
 800109e:	685a      	ldr	r2, [r3, #4]
 80010a0:	f442 0280 	orr.w	r2, r2, #4194304	; 0x400000
 80010a4:	605a      	str	r2, [r3, #4]
 80010a6:	2300      	movs	r3, #0
 80010a8:	f880 303c 	strb.w	r3, [r0, #60]	; 0x3c
 80010ac:	4618      	mov	r0, r3
 80010ae:	b003      	add	sp, #12
 80010b0:	bdf0      	pop	{r4, r5, r6, r7, pc}
 80010b2:	691a      	ldr	r2, [r3, #16]
 80010b4:	eb05 0c45 	add.w	ip, r5, r5, lsl #1
 80010b8:	2707      	movs	r7, #7
 80010ba:	fa07 f70c 	lsl.w	r7, r7, ip
 80010be:	ea22 0207 	bic.w	r2, r2, r7
 80010c2:	611a      	str	r2, [r3, #16]
 80010c4:	691a      	ldr	r2, [r3, #16]
 80010c6:	fa06 f60c 	lsl.w	r6, r6, ip
 80010ca:	4316      	orrs	r6, r2
 80010cc:	611e      	str	r6, [r3, #16]
 80010ce:	e7cb      	b.n	8001068 <HAL_ADC_ConfigChannel+0x40>
 80010d0:	290c      	cmp	r1, #12
 80010d2:	f04f 011f 	mov.w	r1, #31
 80010d6:	d80b      	bhi.n	80010f0 <HAL_ADC_ConfigChannel+0xc8>
 80010d8:	6b1e      	ldr	r6, [r3, #48]	; 0x30
 80010da:	3a23      	subs	r2, #35	; 0x23
 80010dc:	4091      	lsls	r1, r2
 80010de:	ea26 0101 	bic.w	r1, r6, r1
 80010e2:	6319      	str	r1, [r3, #48]	; 0x30
 80010e4:	6b19      	ldr	r1, [r3, #48]	; 0x30
 80010e6:	fa04 f202 	lsl.w	r2, r4, r2
 80010ea:	430a      	orrs	r2, r1
 80010ec:	631a      	str	r2, [r3, #48]	; 0x30
 80010ee:	e7cc      	b.n	800108a <HAL_ADC_ConfigChannel+0x62>
 80010f0:	6ade      	ldr	r6, [r3, #44]	; 0x2c
 80010f2:	3a41      	subs	r2, #65	; 0x41
 80010f4:	4091      	lsls	r1, r2
 80010f6:	ea26 0101 	bic.w	r1, r6, r1
 80010fa:	62d9      	str	r1, [r3, #44]	; 0x2c
 80010fc:	6ad9      	ldr	r1, [r3, #44]	; 0x2c
 80010fe:	4094      	lsls	r4, r2
 8001100:	430c      	orrs	r4, r1
 8001102:	62dc      	str	r4, [r3, #44]	; 0x2c
 8001104:	e7c1      	b.n	800108a <HAL_ADC_ConfigChannel+0x62>
 8001106:	2002      	movs	r0, #2
 8001108:	e7d1      	b.n	80010ae <HAL_ADC_ConfigChannel+0x86>
 800110a:	4b11      	ldr	r3, [pc, #68]	; (8001150 <HAL_ADC_ConfigChannel+0x128>)
 800110c:	429d      	cmp	r5, r3
 800110e:	d001      	beq.n	8001114 <HAL_ADC_ConfigChannel+0xec>
 8001110:	2d11      	cmp	r5, #17
 8001112:	d1c8      	bne.n	80010a6 <HAL_ADC_ConfigChannel+0x7e>
 8001114:	4b0d      	ldr	r3, [pc, #52]	; (800114c <HAL_ADC_ConfigChannel+0x124>)
 8001116:	685a      	ldr	r2, [r3, #4]
 8001118:	f422 0280 	bic.w	r2, r2, #4194304	; 0x400000
 800111c:	605a      	str	r2, [r3, #4]
 800111e:	685a      	ldr	r2, [r3, #4]
 8001120:	f442 0200 	orr.w	r2, r2, #8388608	; 0x800000
 8001124:	605a      	str	r2, [r3, #4]
 8001126:	4b0a      	ldr	r3, [pc, #40]	; (8001150 <HAL_ADC_ConfigChannel+0x128>)
 8001128:	429d      	cmp	r5, r3
 800112a:	d1bc      	bne.n	80010a6 <HAL_ADC_ConfigChannel+0x7e>
 800112c:	4b09      	ldr	r3, [pc, #36]	; (8001154 <HAL_ADC_ConfigChannel+0x12c>)
 800112e:	4a0a      	ldr	r2, [pc, #40]	; (8001158 <HAL_ADC_ConfigChannel+0x130>)
 8001130:	681b      	ldr	r3, [r3, #0]
 8001132:	fbb3 f3f2 	udiv	r3, r3, r2
 8001136:	220a      	movs	r2, #10
 8001138:	4353      	muls	r3, r2
 800113a:	9301      	str	r3, [sp, #4]
 800113c:	9b01      	ldr	r3, [sp, #4]
 800113e:	2b00      	cmp	r3, #0
 8001140:	d0b1      	beq.n	80010a6 <HAL_ADC_ConfigChannel+0x7e>
 8001142:	9b01      	ldr	r3, [sp, #4]
 8001144:	3b01      	subs	r3, #1
 8001146:	e7f8      	b.n	800113a <HAL_ADC_ConfigChannel+0x112>
 8001148:	40012000 	.word	0x40012000
 800114c:	40012300 	.word	0x40012300
 8001150:	10000012 	.word	0x10000012
 8001154:	20000000 	.word	0x20000000
 8001158:	000f4240 	.word	0x000f4240

0800115c <HAL_NVIC_SetPriorityGrouping>:
 800115c:	4907      	ldr	r1, [pc, #28]	; (800117c <HAL_NVIC_SetPriorityGrouping+0x20>)
 800115e:	68ca      	ldr	r2, [r1, #12]
 8001160:	f422 62e0 	bic.w	r2, r2, #1792	; 0x700
 8001164:	0203      	lsls	r3, r0, #8
 8001166:	0412      	lsls	r2, r2, #16
 8001168:	f403 63e0 	and.w	r3, r3, #1792	; 0x700
 800116c:	0c12      	lsrs	r2, r2, #16
 800116e:	4313      	orrs	r3, r2
 8001170:	f043 63bf 	orr.w	r3, r3, #100139008	; 0x5f80000
 8001174:	f443 3300 	orr.w	r3, r3, #131072	; 0x20000
 8001178:	60cb      	str	r3, [r1, #12]
 800117a:	4770      	bx	lr
 800117c:	e000ed00 	.word	0xe000ed00

08001180 <HAL_NVIC_SetPriority>:
 8001180:	4b16      	ldr	r3, [pc, #88]	; (80011dc <HAL_NVIC_SetPriority+0x5c>)
 8001182:	b530      	push	{r4, r5, lr}
 8001184:	68dc      	ldr	r4, [r3, #12]
 8001186:	f3c4 2402 	ubfx	r4, r4, #8, #3
 800118a:	f1c4 0307 	rsb	r3, r4, #7
 800118e:	1d25      	adds	r5, r4, #4
 8001190:	2b04      	cmp	r3, #4
 8001192:	bf28      	it	cs
 8001194:	2304      	movcs	r3, #4
 8001196:	2d06      	cmp	r5, #6
 8001198:	f04f 35ff 	mov.w	r5, #4294967295
 800119c:	bf8c      	ite	hi
 800119e:	3c03      	subhi	r4, #3
 80011a0:	2400      	movls	r4, #0
 80011a2:	fa05 f303 	lsl.w	r3, r5, r3
 80011a6:	ea21 0303 	bic.w	r3, r1, r3
 80011aa:	40a5      	lsls	r5, r4
 80011ac:	ea22 0205 	bic.w	r2, r2, r5
 80011b0:	40a3      	lsls	r3, r4
 80011b2:	2800      	cmp	r0, #0
 80011b4:	ea43 0302 	orr.w	r3, r3, r2
 80011b8:	bfac      	ite	ge
 80011ba:	f100 4060 	addge.w	r0, r0, #3758096384	; 0xe0000000
 80011be:	4a08      	ldrlt	r2, [pc, #32]	; (80011e0 <HAL_NVIC_SetPriority+0x60>)
 80011c0:	ea4f 1303 	mov.w	r3, r3, lsl #4
 80011c4:	bfb8      	it	lt
 80011c6:	f000 000f 	andlt.w	r0, r0, #15
 80011ca:	b2db      	uxtb	r3, r3
 80011cc:	bfaa      	itet	ge
 80011ce:	f500 4061 	addge.w	r0, r0, #57600	; 0xe100
 80011d2:	5413      	strblt	r3, [r2, r0]
 80011d4:	f880 3300 	strbge.w	r3, [r0, #768]	; 0x300
 80011d8:	bd30      	pop	{r4, r5, pc}
 80011da:	bf00      	nop
 80011dc:	e000ed00 	.word	0xe000ed00
 80011e0:	e000ed14 	.word	0xe000ed14

080011e4 <HAL_NVIC_EnableIRQ>:
 80011e4:	2800      	cmp	r0, #0
 80011e6:	db07      	blt.n	80011f8 <HAL_NVIC_EnableIRQ+0x14>
 80011e8:	0941      	lsrs	r1, r0, #5
 80011ea:	4a04      	ldr	r2, [pc, #16]	; (80011fc <HAL_NVIC_EnableIRQ+0x18>)
 80011ec:	f000 001f 	and.w	r0, r0, #31
 80011f0:	2301      	movs	r3, #1
 80011f2:	4083      	lsls	r3, r0
 80011f4:	f842 3021 	str.w	r3, [r2, r1, lsl #2]
 80011f8:	4770      	bx	lr
 80011fa:	bf00      	nop
 80011fc:	e000e100 	.word	0xe000e100

08001200 <HAL_CRC_Init>:
 8001200:	b510      	push	{r4, lr}
 8001202:	4604      	mov	r4, r0
 8001204:	b150      	cbz	r0, 800121c <HAL_CRC_Init+0x1c>
 8001206:	7943      	ldrb	r3, [r0, #5]
 8001208:	f003 02ff 	and.w	r2, r3, #255	; 0xff
 800120c:	b913      	cbnz	r3, 8001214 <HAL_CRC_Init+0x14>
 800120e:	7102      	strb	r2, [r0, #4]
 8001210:	f7ff fbc0 	bl	8000994 <HAL_CRC_MspInit>
 8001214:	2301      	movs	r3, #1
 8001216:	7163      	strb	r3, [r4, #5]
 8001218:	2000      	movs	r0, #0
 800121a:	bd10      	pop	{r4, pc}
 800121c:	2001      	movs	r0, #1
 800121e:	e7fc      	b.n	800121a <HAL_CRC_Init+0x1a>

08001220 <DMA_CalcBaseAndBitshift>:
 8001220:	6803      	ldr	r3, [r0, #0]
 8001222:	b510      	push	{r4, lr}
 8001224:	b2da      	uxtb	r2, r3
 8001226:	3a10      	subs	r2, #16
 8001228:	4c07      	ldr	r4, [pc, #28]	; (8001248 <DMA_CalcBaseAndBitshift+0x28>)
 800122a:	f423 737f 	bic.w	r3, r3, #1020	; 0x3fc
 800122e:	f023 0303 	bic.w	r3, r3, #3
 8001232:	2a5f      	cmp	r2, #95	; 0x5f
 8001234:	bf88      	it	hi
 8001236:	3304      	addhi	r3, #4
 8001238:	2118      	movs	r1, #24
 800123a:	fbb2 f1f1 	udiv	r1, r2, r1
 800123e:	5c61      	ldrb	r1, [r4, r1]
 8001240:	65c1      	str	r1, [r0, #92]	; 0x5c
 8001242:	6583      	str	r3, [r0, #88]	; 0x58
 8001244:	4618      	mov	r0, r3
 8001246:	bd10      	pop	{r4, pc}
 8001248:	08002fdc 	.word	0x08002fdc

0800124c <HAL_DMA_Init>:
 800124c:	b570      	push	{r4, r5, r6, lr}
 800124e:	4604      	mov	r4, r0
 8001250:	f7ff fe2a 	bl	8000ea8 <HAL_GetTick>
 8001254:	4605      	mov	r5, r0
 8001256:	2c00      	cmp	r4, #0
 8001258:	d071      	beq.n	800133e <HAL_DMA_Init+0xf2>
 800125a:	2302      	movs	r3, #2
 800125c:	f884 3035 	strb.w	r3, [r4, #53]	; 0x35
 8001260:	6822      	ldr	r2, [r4, #0]
 8001262:	2300      	movs	r3, #0
 8001264:	f884 3034 	strb.w	r3, [r4, #52]	; 0x34
 8001268:	6813      	ldr	r3, [r2, #0]
 800126a:	f023 0301 	bic.w	r3, r3, #1
 800126e:	6013      	str	r3, [r2, #0]
 8001270:	6822      	ldr	r2, [r4, #0]
 8001272:	6813      	ldr	r3, [r2, #0]
 8001274:	07d8      	lsls	r0, r3, #31
 8001276:	d42e      	bmi.n	80012d6 <HAL_DMA_Init+0x8a>
 8001278:	6813      	ldr	r3, [r2, #0]
 800127a:	4832      	ldr	r0, [pc, #200]	; (8001344 <HAL_DMA_Init+0xf8>)
 800127c:	69a1      	ldr	r1, [r4, #24]
 800127e:	4018      	ands	r0, r3
 8001280:	e9d4 3501 	ldrd	r3, r5, [r4, #4]
 8001284:	432b      	orrs	r3, r5
 8001286:	68e5      	ldr	r5, [r4, #12]
 8001288:	432b      	orrs	r3, r5
 800128a:	6925      	ldr	r5, [r4, #16]
 800128c:	432b      	orrs	r3, r5
 800128e:	6965      	ldr	r5, [r4, #20]
 8001290:	432b      	orrs	r3, r5
 8001292:	69e5      	ldr	r5, [r4, #28]
 8001294:	430b      	orrs	r3, r1
 8001296:	432b      	orrs	r3, r5
 8001298:	6a25      	ldr	r5, [r4, #32]
 800129a:	432b      	orrs	r3, r5
 800129c:	4303      	orrs	r3, r0
 800129e:	6a60      	ldr	r0, [r4, #36]	; 0x24
 80012a0:	2804      	cmp	r0, #4
 80012a2:	bf02      	ittt	eq
 80012a4:	e9d4 560b 	ldrdeq	r5, r6, [r4, #44]	; 0x2c
 80012a8:	4335      	orreq	r5, r6
 80012aa:	432b      	orreq	r3, r5
 80012ac:	6013      	str	r3, [r2, #0]
 80012ae:	6953      	ldr	r3, [r2, #20]
 80012b0:	2804      	cmp	r0, #4
 80012b2:	f023 0307 	bic.w	r3, r3, #7
 80012b6:	ea43 0300 	orr.w	r3, r3, r0
 80012ba:	d132      	bne.n	8001322 <HAL_DMA_Init+0xd6>
 80012bc:	6aa0      	ldr	r0, [r4, #40]	; 0x28
 80012be:	6ae5      	ldr	r5, [r4, #44]	; 0x2c
 80012c0:	4303      	orrs	r3, r0
 80012c2:	b375      	cbz	r5, 8001322 <HAL_DMA_Init+0xd6>
 80012c4:	b991      	cbnz	r1, 80012ec <HAL_DMA_Init+0xa0>
 80012c6:	2801      	cmp	r0, #1
 80012c8:	d020      	beq.n	800130c <HAL_DMA_Init+0xc0>
 80012ca:	f030 0102 	bics.w	r1, r0, #2
 80012ce:	d128      	bne.n	8001322 <HAL_DMA_Init+0xd6>
 80012d0:	01e9      	lsls	r1, r5, #7
 80012d2:	d526      	bpl.n	8001322 <HAL_DMA_Init+0xd6>
 80012d4:	e01d      	b.n	8001312 <HAL_DMA_Init+0xc6>
 80012d6:	f7ff fde7 	bl	8000ea8 <HAL_GetTick>
 80012da:	1b40      	subs	r0, r0, r5
 80012dc:	2805      	cmp	r0, #5
 80012de:	d9c7      	bls.n	8001270 <HAL_DMA_Init+0x24>
 80012e0:	2320      	movs	r3, #32
 80012e2:	6563      	str	r3, [r4, #84]	; 0x54
 80012e4:	2003      	movs	r0, #3
 80012e6:	f884 0035 	strb.w	r0, [r4, #53]	; 0x35
 80012ea:	bd70      	pop	{r4, r5, r6, pc}
 80012ec:	f5b1 5f00 	cmp.w	r1, #8192	; 0x2000
 80012f0:	d113      	bne.n	800131a <HAL_DMA_Init+0xce>
 80012f2:	2803      	cmp	r0, #3
 80012f4:	d815      	bhi.n	8001322 <HAL_DMA_Init+0xd6>
 80012f6:	a101      	add	r1, pc, #4	; (adr r1, 80012fc <HAL_DMA_Init+0xb0>)
 80012f8:	f851 f020 	ldr.w	pc, [r1, r0, lsl #2]
 80012fc:	08001313 	.word	0x08001313
 8001300:	080012d1 	.word	0x080012d1
 8001304:	08001313 	.word	0x08001313
 8001308:	0800130d 	.word	0x0800130d
 800130c:	f1b5 7fc0 	cmp.w	r5, #25165824	; 0x1800000
 8001310:	d107      	bne.n	8001322 <HAL_DMA_Init+0xd6>
 8001312:	2340      	movs	r3, #64	; 0x40
 8001314:	6563      	str	r3, [r4, #84]	; 0x54
 8001316:	2001      	movs	r0, #1
 8001318:	e7e5      	b.n	80012e6 <HAL_DMA_Init+0x9a>
 800131a:	2802      	cmp	r0, #2
 800131c:	d9f9      	bls.n	8001312 <HAL_DMA_Init+0xc6>
 800131e:	2803      	cmp	r0, #3
 8001320:	d0d6      	beq.n	80012d0 <HAL_DMA_Init+0x84>
 8001322:	6153      	str	r3, [r2, #20]
 8001324:	4620      	mov	r0, r4
 8001326:	f7ff ff7b 	bl	8001220 <DMA_CalcBaseAndBitshift>
 800132a:	6de2      	ldr	r2, [r4, #92]	; 0x5c
 800132c:	233f      	movs	r3, #63	; 0x3f
 800132e:	4093      	lsls	r3, r2
 8001330:	6083      	str	r3, [r0, #8]
 8001332:	2000      	movs	r0, #0
 8001334:	2301      	movs	r3, #1
 8001336:	6560      	str	r0, [r4, #84]	; 0x54
 8001338:	f884 3035 	strb.w	r3, [r4, #53]	; 0x35
 800133c:	e7d5      	b.n	80012ea <HAL_DMA_Init+0x9e>
 800133e:	2001      	movs	r0, #1
 8001340:	e7d3      	b.n	80012ea <HAL_DMA_Init+0x9e>
 8001342:	bf00      	nop
 8001344:	f010803f 	.word	0xf010803f

08001348 <HAL_DMA_Abort_IT>:
 8001348:	f890 3035 	ldrb.w	r3, [r0, #53]	; 0x35
 800134c:	2b02      	cmp	r3, #2
 800134e:	d003      	beq.n	8001358 <HAL_DMA_Abort_IT+0x10>
 8001350:	2380      	movs	r3, #128	; 0x80
 8001352:	6543      	str	r3, [r0, #84]	; 0x54
 8001354:	2001      	movs	r0, #1
 8001356:	4770      	bx	lr
 8001358:	6802      	ldr	r2, [r0, #0]
 800135a:	2305      	movs	r3, #5
 800135c:	f880 3035 	strb.w	r3, [r0, #53]	; 0x35
 8001360:	6813      	ldr	r3, [r2, #0]
 8001362:	f023 0301 	bic.w	r3, r3, #1
 8001366:	6013      	str	r3, [r2, #0]
 8001368:	2000      	movs	r0, #0
 800136a:	4770      	bx	lr

0800136c <HAL_DMA_IRQHandler>:
 800136c:	b5f7      	push	{r0, r1, r2, r4, r5, r6, r7, lr}
 800136e:	2300      	movs	r3, #0
 8001370:	9301      	str	r3, [sp, #4]
 8001372:	4b5c      	ldr	r3, [pc, #368]	; (80014e4 <HAL_DMA_IRQHandler+0x178>)
 8001374:	6d85      	ldr	r5, [r0, #88]	; 0x58
 8001376:	681f      	ldr	r7, [r3, #0]
 8001378:	6dc3      	ldr	r3, [r0, #92]	; 0x5c
 800137a:	682e      	ldr	r6, [r5, #0]
 800137c:	2208      	movs	r2, #8
 800137e:	409a      	lsls	r2, r3
 8001380:	4232      	tst	r2, r6
 8001382:	4604      	mov	r4, r0
 8001384:	d00c      	beq.n	80013a0 <HAL_DMA_IRQHandler+0x34>
 8001386:	6801      	ldr	r1, [r0, #0]
 8001388:	6808      	ldr	r0, [r1, #0]
 800138a:	0740      	lsls	r0, r0, #29
 800138c:	d508      	bpl.n	80013a0 <HAL_DMA_IRQHandler+0x34>
 800138e:	6808      	ldr	r0, [r1, #0]
 8001390:	f020 0004 	bic.w	r0, r0, #4
 8001394:	6008      	str	r0, [r1, #0]
 8001396:	60aa      	str	r2, [r5, #8]
 8001398:	6d62      	ldr	r2, [r4, #84]	; 0x54
 800139a:	f042 0201 	orr.w	r2, r2, #1
 800139e:	6562      	str	r2, [r4, #84]	; 0x54
 80013a0:	2201      	movs	r2, #1
 80013a2:	409a      	lsls	r2, r3
 80013a4:	4232      	tst	r2, r6
 80013a6:	d008      	beq.n	80013ba <HAL_DMA_IRQHandler+0x4e>
 80013a8:	6821      	ldr	r1, [r4, #0]
 80013aa:	6949      	ldr	r1, [r1, #20]
 80013ac:	0609      	lsls	r1, r1, #24
 80013ae:	bf41      	itttt	mi
 80013b0:	60aa      	strmi	r2, [r5, #8]
 80013b2:	6d62      	ldrmi	r2, [r4, #84]	; 0x54
 80013b4:	f042 0202 	orrmi.w	r2, r2, #2
 80013b8:	6562      	strmi	r2, [r4, #84]	; 0x54
 80013ba:	2204      	movs	r2, #4
 80013bc:	409a      	lsls	r2, r3
 80013be:	4232      	tst	r2, r6
 80013c0:	d008      	beq.n	80013d4 <HAL_DMA_IRQHandler+0x68>
 80013c2:	6821      	ldr	r1, [r4, #0]
 80013c4:	6809      	ldr	r1, [r1, #0]
 80013c6:	0788      	lsls	r0, r1, #30
 80013c8:	bf41      	itttt	mi
 80013ca:	60aa      	strmi	r2, [r5, #8]
 80013cc:	6d62      	ldrmi	r2, [r4, #84]	; 0x54
 80013ce:	f042 0204 	orrmi.w	r2, r2, #4
 80013d2:	6562      	strmi	r2, [r4, #84]	; 0x54
 80013d4:	2210      	movs	r2, #16
 80013d6:	409a      	lsls	r2, r3
 80013d8:	4232      	tst	r2, r6
 80013da:	d010      	beq.n	80013fe <HAL_DMA_IRQHandler+0x92>
 80013dc:	6823      	ldr	r3, [r4, #0]
 80013de:	6819      	ldr	r1, [r3, #0]
 80013e0:	0709      	lsls	r1, r1, #28
 80013e2:	d50c      	bpl.n	80013fe <HAL_DMA_IRQHandler+0x92>
 80013e4:	60aa      	str	r2, [r5, #8]
 80013e6:	681a      	ldr	r2, [r3, #0]
 80013e8:	0350      	lsls	r0, r2, #13
 80013ea:	d537      	bpl.n	800145c <HAL_DMA_IRQHandler+0xf0>
 80013ec:	681b      	ldr	r3, [r3, #0]
 80013ee:	0319      	lsls	r1, r3, #12
 80013f0:	d401      	bmi.n	80013f6 <HAL_DMA_IRQHandler+0x8a>
 80013f2:	6c23      	ldr	r3, [r4, #64]	; 0x40
 80013f4:	e000      	b.n	80013f8 <HAL_DMA_IRQHandler+0x8c>
 80013f6:	6ca3      	ldr	r3, [r4, #72]	; 0x48
 80013f8:	b10b      	cbz	r3, 80013fe <HAL_DMA_IRQHandler+0x92>
 80013fa:	4620      	mov	r0, r4
 80013fc:	4798      	blx	r3
 80013fe:	6de1      	ldr	r1, [r4, #92]	; 0x5c
 8001400:	2220      	movs	r2, #32
 8001402:	408a      	lsls	r2, r1
 8001404:	4232      	tst	r2, r6
 8001406:	d03a      	beq.n	800147e <HAL_DMA_IRQHandler+0x112>
 8001408:	6823      	ldr	r3, [r4, #0]
 800140a:	6818      	ldr	r0, [r3, #0]
 800140c:	06c6      	lsls	r6, r0, #27
 800140e:	d536      	bpl.n	800147e <HAL_DMA_IRQHandler+0x112>
 8001410:	60aa      	str	r2, [r5, #8]
 8001412:	f894 2035 	ldrb.w	r2, [r4, #53]	; 0x35
 8001416:	2a05      	cmp	r2, #5
 8001418:	681a      	ldr	r2, [r3, #0]
 800141a:	d127      	bne.n	800146c <HAL_DMA_IRQHandler+0x100>
 800141c:	f022 0216 	bic.w	r2, r2, #22
 8001420:	601a      	str	r2, [r3, #0]
 8001422:	695a      	ldr	r2, [r3, #20]
 8001424:	f022 0280 	bic.w	r2, r2, #128	; 0x80
 8001428:	615a      	str	r2, [r3, #20]
 800142a:	6c22      	ldr	r2, [r4, #64]	; 0x40
 800142c:	b90a      	cbnz	r2, 8001432 <HAL_DMA_IRQHandler+0xc6>
 800142e:	6ca2      	ldr	r2, [r4, #72]	; 0x48
 8001430:	b11a      	cbz	r2, 800143a <HAL_DMA_IRQHandler+0xce>
 8001432:	681a      	ldr	r2, [r3, #0]
 8001434:	f022 0208 	bic.w	r2, r2, #8
 8001438:	601a      	str	r2, [r3, #0]
 800143a:	233f      	movs	r3, #63	; 0x3f
 800143c:	408b      	lsls	r3, r1
 800143e:	60ab      	str	r3, [r5, #8]
 8001440:	2301      	movs	r3, #1
 8001442:	f884 3035 	strb.w	r3, [r4, #53]	; 0x35
 8001446:	2300      	movs	r3, #0
 8001448:	f884 3034 	strb.w	r3, [r4, #52]	; 0x34
 800144c:	6d23      	ldr	r3, [r4, #80]	; 0x50
 800144e:	2b00      	cmp	r3, #0
 8001450:	d045      	beq.n	80014de <HAL_DMA_IRQHandler+0x172>
 8001452:	4620      	mov	r0, r4
 8001454:	b003      	add	sp, #12
 8001456:	e8bd 40f0 	ldmia.w	sp!, {r4, r5, r6, r7, lr}
 800145a:	4718      	bx	r3
 800145c:	681a      	ldr	r2, [r3, #0]
 800145e:	05d2      	lsls	r2, r2, #23
 8001460:	bf5e      	ittt	pl
 8001462:	681a      	ldrpl	r2, [r3, #0]
 8001464:	f022 0208 	bicpl.w	r2, r2, #8
 8001468:	601a      	strpl	r2, [r3, #0]
 800146a:	e7c2      	b.n	80013f2 <HAL_DMA_IRQHandler+0x86>
 800146c:	0350      	lsls	r0, r2, #13
 800146e:	d527      	bpl.n	80014c0 <HAL_DMA_IRQHandler+0x154>
 8001470:	681b      	ldr	r3, [r3, #0]
 8001472:	0319      	lsls	r1, r3, #12
 8001474:	d431      	bmi.n	80014da <HAL_DMA_IRQHandler+0x16e>
 8001476:	6c63      	ldr	r3, [r4, #68]	; 0x44
 8001478:	b10b      	cbz	r3, 800147e <HAL_DMA_IRQHandler+0x112>
 800147a:	4620      	mov	r0, r4
 800147c:	4798      	blx	r3
 800147e:	6d63      	ldr	r3, [r4, #84]	; 0x54
 8001480:	b36b      	cbz	r3, 80014de <HAL_DMA_IRQHandler+0x172>
 8001482:	6d63      	ldr	r3, [r4, #84]	; 0x54
 8001484:	07da      	lsls	r2, r3, #31
 8001486:	d519      	bpl.n	80014bc <HAL_DMA_IRQHandler+0x150>
 8001488:	6822      	ldr	r2, [r4, #0]
 800148a:	f44f 5316 	mov.w	r3, #9600	; 0x2580
 800148e:	fbb7 f7f3 	udiv	r7, r7, r3
 8001492:	2305      	movs	r3, #5
 8001494:	f884 3035 	strb.w	r3, [r4, #53]	; 0x35
 8001498:	6813      	ldr	r3, [r2, #0]
 800149a:	f023 0301 	bic.w	r3, r3, #1
 800149e:	6013      	str	r3, [r2, #0]
 80014a0:	9b01      	ldr	r3, [sp, #4]
 80014a2:	3301      	adds	r3, #1
 80014a4:	42bb      	cmp	r3, r7
 80014a6:	9301      	str	r3, [sp, #4]
 80014a8:	d802      	bhi.n	80014b0 <HAL_DMA_IRQHandler+0x144>
 80014aa:	6813      	ldr	r3, [r2, #0]
 80014ac:	07db      	lsls	r3, r3, #31
 80014ae:	d4f7      	bmi.n	80014a0 <HAL_DMA_IRQHandler+0x134>
 80014b0:	2301      	movs	r3, #1
 80014b2:	f884 3035 	strb.w	r3, [r4, #53]	; 0x35
 80014b6:	2300      	movs	r3, #0
 80014b8:	f884 3034 	strb.w	r3, [r4, #52]	; 0x34
 80014bc:	6ce3      	ldr	r3, [r4, #76]	; 0x4c
 80014be:	e7c6      	b.n	800144e <HAL_DMA_IRQHandler+0xe2>
 80014c0:	681a      	ldr	r2, [r3, #0]
 80014c2:	f412 7280 	ands.w	r2, r2, #256	; 0x100
 80014c6:	d108      	bne.n	80014da <HAL_DMA_IRQHandler+0x16e>
 80014c8:	6819      	ldr	r1, [r3, #0]
 80014ca:	f021 0110 	bic.w	r1, r1, #16
 80014ce:	6019      	str	r1, [r3, #0]
 80014d0:	2301      	movs	r3, #1
 80014d2:	f884 3035 	strb.w	r3, [r4, #53]	; 0x35
 80014d6:	f884 2034 	strb.w	r2, [r4, #52]	; 0x34
 80014da:	6be3      	ldr	r3, [r4, #60]	; 0x3c
 80014dc:	e7cc      	b.n	8001478 <HAL_DMA_IRQHandler+0x10c>
 80014de:	b003      	add	sp, #12
 80014e0:	bdf0      	pop	{r4, r5, r6, r7, pc}
 80014e2:	bf00      	nop
 80014e4:	20000000 	.word	0x20000000

080014e8 <HAL_GPIO_Init>:
 80014e8:	e92d 4ff7 	stmdb	sp!, {r0, r1, r2, r4, r5, r6, r7, r8, r9, sl, fp, lr}
 80014ec:	f8df 919c 	ldr.w	r9, [pc, #412]	; 800168c <HAL_GPIO_Init+0x1a4>
 80014f0:	4a64      	ldr	r2, [pc, #400]	; (8001684 <HAL_GPIO_Init+0x19c>)
 80014f2:	2300      	movs	r3, #0
 80014f4:	680d      	ldr	r5, [r1, #0]
 80014f6:	2401      	movs	r4, #1
 80014f8:	409c      	lsls	r4, r3
 80014fa:	ea04 0c05 	and.w	ip, r4, r5
 80014fe:	43ac      	bics	r4, r5
 8001500:	f040 80ad 	bne.w	800165e <HAL_GPIO_Init+0x176>
 8001504:	684d      	ldr	r5, [r1, #4]
 8001506:	f005 0403 	and.w	r4, r5, #3
 800150a:	ea4f 0843 	mov.w	r8, r3, lsl #1
 800150e:	2603      	movs	r6, #3
 8001510:	1e67      	subs	r7, r4, #1
 8001512:	fa06 f608 	lsl.w	r6, r6, r8
 8001516:	2f01      	cmp	r7, #1
 8001518:	ea6f 0606 	mvn.w	r6, r6
 800151c:	d834      	bhi.n	8001588 <HAL_GPIO_Init+0xa0>
 800151e:	6887      	ldr	r7, [r0, #8]
 8001520:	ea07 0e06 	and.w	lr, r7, r6
 8001524:	68cf      	ldr	r7, [r1, #12]
 8001526:	fa07 f708 	lsl.w	r7, r7, r8
 800152a:	ea47 070e 	orr.w	r7, r7, lr
 800152e:	6087      	str	r7, [r0, #8]
 8001530:	6847      	ldr	r7, [r0, #4]
 8001532:	ea27 0e0c 	bic.w	lr, r7, ip
 8001536:	f3c5 1700 	ubfx	r7, r5, #4, #1
 800153a:	409f      	lsls	r7, r3
 800153c:	ea47 070e 	orr.w	r7, r7, lr
 8001540:	6047      	str	r7, [r0, #4]
 8001542:	68c7      	ldr	r7, [r0, #12]
 8001544:	ea07 0e06 	and.w	lr, r7, r6
 8001548:	688f      	ldr	r7, [r1, #8]
 800154a:	fa07 f708 	lsl.w	r7, r7, r8
 800154e:	ea47 070e 	orr.w	r7, r7, lr
 8001552:	2c02      	cmp	r4, #2
 8001554:	60c7      	str	r7, [r0, #12]
 8001556:	d119      	bne.n	800158c <HAL_GPIO_Init+0xa4>
 8001558:	ea4f 0ad3 	mov.w	sl, r3, lsr #3
 800155c:	eb00 0a8a 	add.w	sl, r0, sl, lsl #2
 8001560:	f003 0b07 	and.w	fp, r3, #7
 8001564:	f8da 7020 	ldr.w	r7, [sl, #32]
 8001568:	ea4f 0b8b 	mov.w	fp, fp, lsl #2
 800156c:	f04f 0e0f 	mov.w	lr, #15
 8001570:	fa0e fe0b 	lsl.w	lr, lr, fp
 8001574:	ea27 0e0e 	bic.w	lr, r7, lr
 8001578:	690f      	ldr	r7, [r1, #16]
 800157a:	fa07 f70b 	lsl.w	r7, r7, fp
 800157e:	ea47 070e 	orr.w	r7, r7, lr
 8001582:	f8ca 7020 	str.w	r7, [sl, #32]
 8001586:	e001      	b.n	800158c <HAL_GPIO_Init+0xa4>
 8001588:	2c03      	cmp	r4, #3
 800158a:	d1da      	bne.n	8001542 <HAL_GPIO_Init+0x5a>
 800158c:	6807      	ldr	r7, [r0, #0]
 800158e:	fa04 f408 	lsl.w	r4, r4, r8
 8001592:	4037      	ands	r7, r6
 8001594:	433c      	orrs	r4, r7
 8001596:	f415 3f40 	tst.w	r5, #196608	; 0x30000
 800159a:	6004      	str	r4, [r0, #0]
 800159c:	d05f      	beq.n	800165e <HAL_GPIO_Init+0x176>
 800159e:	f04f 0a00 	mov.w	sl, #0
 80015a2:	f8cd a004 	str.w	sl, [sp, #4]
 80015a6:	f8d9 6044 	ldr.w	r6, [r9, #68]	; 0x44
 80015aa:	4c37      	ldr	r4, [pc, #220]	; (8001688 <HAL_GPIO_Init+0x1a0>)
 80015ac:	f446 4680 	orr.w	r6, r6, #16384	; 0x4000
 80015b0:	f8c9 6044 	str.w	r6, [r9, #68]	; 0x44
 80015b4:	f8d9 6044 	ldr.w	r6, [r9, #68]	; 0x44
 80015b8:	f406 4680 	and.w	r6, r6, #16384	; 0x4000
 80015bc:	9601      	str	r6, [sp, #4]
 80015be:	9e01      	ldr	r6, [sp, #4]
 80015c0:	f023 0603 	bic.w	r6, r3, #3
 80015c4:	f106 4680 	add.w	r6, r6, #1073741824	; 0x40000000
 80015c8:	f506 369c 	add.w	r6, r6, #79872	; 0x13800
 80015cc:	f003 0e03 	and.w	lr, r3, #3
 80015d0:	f8d6 8008 	ldr.w	r8, [r6, #8]
 80015d4:	ea4f 0e8e 	mov.w	lr, lr, lsl #2
 80015d8:	270f      	movs	r7, #15
 80015da:	fa07 f70e 	lsl.w	r7, r7, lr
 80015de:	42a0      	cmp	r0, r4
 80015e0:	ea28 0707 	bic.w	r7, r8, r7
 80015e4:	d042      	beq.n	800166c <HAL_GPIO_Init+0x184>
 80015e6:	f504 6480 	add.w	r4, r4, #1024	; 0x400
 80015ea:	42a0      	cmp	r0, r4
 80015ec:	d040      	beq.n	8001670 <HAL_GPIO_Init+0x188>
 80015ee:	f504 6480 	add.w	r4, r4, #1024	; 0x400
 80015f2:	42a0      	cmp	r0, r4
 80015f4:	d03e      	beq.n	8001674 <HAL_GPIO_Init+0x18c>
 80015f6:	f504 6480 	add.w	r4, r4, #1024	; 0x400
 80015fa:	42a0      	cmp	r0, r4
 80015fc:	d03c      	beq.n	8001678 <HAL_GPIO_Init+0x190>
 80015fe:	f504 6480 	add.w	r4, r4, #1024	; 0x400
 8001602:	42a0      	cmp	r0, r4
 8001604:	d03a      	beq.n	800167c <HAL_GPIO_Init+0x194>
 8001606:	f504 6480 	add.w	r4, r4, #1024	; 0x400
 800160a:	42a0      	cmp	r0, r4
 800160c:	d038      	beq.n	8001680 <HAL_GPIO_Init+0x198>
 800160e:	f504 6480 	add.w	r4, r4, #1024	; 0x400
 8001612:	42a0      	cmp	r0, r4
 8001614:	bf0c      	ite	eq
 8001616:	2406      	moveq	r4, #6
 8001618:	2407      	movne	r4, #7
 800161a:	fa04 f40e 	lsl.w	r4, r4, lr
 800161e:	433c      	orrs	r4, r7
 8001620:	60b4      	str	r4, [r6, #8]
 8001622:	6894      	ldr	r4, [r2, #8]
 8001624:	ea6f 060c 	mvn.w	r6, ip
 8001628:	02ef      	lsls	r7, r5, #11
 800162a:	bf54      	ite	pl
 800162c:	4034      	andpl	r4, r6
 800162e:	ea4c 0404 	orrmi.w	r4, ip, r4
 8001632:	6094      	str	r4, [r2, #8]
 8001634:	68d4      	ldr	r4, [r2, #12]
 8001636:	02af      	lsls	r7, r5, #10
 8001638:	bf54      	ite	pl
 800163a:	4034      	andpl	r4, r6
 800163c:	ea4c 0404 	orrmi.w	r4, ip, r4
 8001640:	60d4      	str	r4, [r2, #12]
 8001642:	6854      	ldr	r4, [r2, #4]
 8001644:	03af      	lsls	r7, r5, #14
 8001646:	bf54      	ite	pl
 8001648:	4034      	andpl	r4, r6
 800164a:	ea4c 0404 	orrmi.w	r4, ip, r4
 800164e:	6054      	str	r4, [r2, #4]
 8001650:	6814      	ldr	r4, [r2, #0]
 8001652:	03ed      	lsls	r5, r5, #15
 8001654:	bf54      	ite	pl
 8001656:	4034      	andpl	r4, r6
 8001658:	ea4c 0404 	orrmi.w	r4, ip, r4
 800165c:	6014      	str	r4, [r2, #0]
 800165e:	3301      	adds	r3, #1
 8001660:	2b10      	cmp	r3, #16
 8001662:	f47f af47 	bne.w	80014f4 <HAL_GPIO_Init+0xc>
 8001666:	b003      	add	sp, #12
 8001668:	e8bd 8ff0 	ldmia.w	sp!, {r4, r5, r6, r7, r8, r9, sl, fp, pc}
 800166c:	4654      	mov	r4, sl
 800166e:	e7d4      	b.n	800161a <HAL_GPIO_Init+0x132>
 8001670:	2401      	movs	r4, #1
 8001672:	e7d2      	b.n	800161a <HAL_GPIO_Init+0x132>
 8001674:	2402      	movs	r4, #2
 8001676:	e7d0      	b.n	800161a <HAL_GPIO_Init+0x132>
 8001678:	2403      	movs	r4, #3
 800167a:	e7ce      	b.n	800161a <HAL_GPIO_Init+0x132>
 800167c:	2404      	movs	r4, #4
 800167e:	e7cc      	b.n	800161a <HAL_GPIO_Init+0x132>
 8001680:	2405      	movs	r4, #5
 8001682:	e7ca      	b.n	800161a <HAL_GPIO_Init+0x132>
 8001684:	40013c00 	.word	0x40013c00
 8001688:	40020000 	.word	0x40020000
 800168c:	40023800 	.word	0x40023800

08001690 <HAL_GPIO_WritePin>:
 8001690:	b10a      	cbz	r2, 8001696 <HAL_GPIO_WritePin+0x6>
 8001692:	6181      	str	r1, [r0, #24]
 8001694:	4770      	bx	lr
 8001696:	0409      	lsls	r1, r1, #16
 8001698:	e7fb      	b.n	8001692 <HAL_GPIO_WritePin+0x2>
	...

0800169c <HAL_I2C_Init>:
 800169c:	b570      	push	{r4, r5, r6, lr}
 800169e:	4604      	mov	r4, r0
 80016a0:	b908      	cbnz	r0, 80016a6 <HAL_I2C_Init+0xa>
 80016a2:	2001      	movs	r0, #1
 80016a4:	bd70      	pop	{r4, r5, r6, pc}
 80016a6:	f890 303d 	ldrb.w	r3, [r0, #61]	; 0x3d
 80016aa:	f003 02ff 	and.w	r2, r3, #255	; 0xff
 80016ae:	b91b      	cbnz	r3, 80016b8 <HAL_I2C_Init+0x1c>
 80016b0:	f880 203c 	strb.w	r2, [r0, #60]	; 0x3c
 80016b4:	f7ff f986 	bl	80009c4 <HAL_I2C_MspInit>
 80016b8:	2324      	movs	r3, #36	; 0x24
 80016ba:	f884 303d 	strb.w	r3, [r4, #61]	; 0x3d
 80016be:	6823      	ldr	r3, [r4, #0]
 80016c0:	681a      	ldr	r2, [r3, #0]
 80016c2:	f022 0201 	bic.w	r2, r2, #1
 80016c6:	601a      	str	r2, [r3, #0]
 80016c8:	681a      	ldr	r2, [r3, #0]
 80016ca:	f442 4200 	orr.w	r2, r2, #32768	; 0x8000
 80016ce:	601a      	str	r2, [r3, #0]
 80016d0:	681a      	ldr	r2, [r3, #0]
 80016d2:	f422 4200 	bic.w	r2, r2, #32768	; 0x8000
 80016d6:	601a      	str	r2, [r3, #0]
 80016d8:	f000 f9c0 	bl	8001a5c <HAL_RCC_GetPCLK1Freq>
 80016dc:	4b3f      	ldr	r3, [pc, #252]	; (80017dc <HAL_I2C_Init+0x140>)
 80016de:	6865      	ldr	r5, [r4, #4]
 80016e0:	429d      	cmp	r5, r3
 80016e2:	bf94      	ite	ls
 80016e4:	4b3e      	ldrls	r3, [pc, #248]	; (80017e0 <HAL_I2C_Init+0x144>)
 80016e6:	4b3f      	ldrhi	r3, [pc, #252]	; (80017e4 <HAL_I2C_Init+0x148>)
 80016e8:	4298      	cmp	r0, r3
 80016ea:	bf8c      	ite	hi
 80016ec:	2300      	movhi	r3, #0
 80016ee:	2301      	movls	r3, #1
 80016f0:	2b00      	cmp	r3, #0
 80016f2:	d1d6      	bne.n	80016a2 <HAL_I2C_Init+0x6>
 80016f4:	6822      	ldr	r2, [r4, #0]
 80016f6:	4e39      	ldr	r6, [pc, #228]	; (80017dc <HAL_I2C_Init+0x140>)
 80016f8:	6851      	ldr	r1, [r2, #4]
 80016fa:	4b3b      	ldr	r3, [pc, #236]	; (80017e8 <HAL_I2C_Init+0x14c>)
 80016fc:	fbb0 f3f3 	udiv	r3, r0, r3
 8001700:	f021 013f 	bic.w	r1, r1, #63	; 0x3f
 8001704:	4319      	orrs	r1, r3
 8001706:	42b5      	cmp	r5, r6
 8001708:	6051      	str	r1, [r2, #4]
 800170a:	bf88      	it	hi
 800170c:	f44f 7696 	movhi.w	r6, #300	; 0x12c
 8001710:	6a11      	ldr	r1, [r2, #32]
 8001712:	bf88      	it	hi
 8001714:	4373      	mulhi	r3, r6
 8001716:	f021 013f 	bic.w	r1, r1, #63	; 0x3f
 800171a:	bf84      	itt	hi
 800171c:	f44f 767a 	movhi.w	r6, #1000	; 0x3e8
 8001720:	fbb3 f3f6 	udivhi	r3, r3, r6
 8001724:	3301      	adds	r3, #1
 8001726:	430b      	orrs	r3, r1
 8001728:	6213      	str	r3, [r2, #32]
 800172a:	69d1      	ldr	r1, [r2, #28]
 800172c:	1e43      	subs	r3, r0, #1
 800172e:	482b      	ldr	r0, [pc, #172]	; (80017dc <HAL_I2C_Init+0x140>)
 8001730:	f421 414f 	bic.w	r1, r1, #52992	; 0xcf00
 8001734:	4285      	cmp	r5, r0
 8001736:	f021 01ff 	bic.w	r1, r1, #255	; 0xff
 800173a:	d832      	bhi.n	80017a2 <HAL_I2C_Init+0x106>
 800173c:	006d      	lsls	r5, r5, #1
 800173e:	f640 70fc 	movw	r0, #4092	; 0xffc
 8001742:	fbb3 f3f5 	udiv	r3, r3, r5
 8001746:	3301      	adds	r3, #1
 8001748:	4203      	tst	r3, r0
 800174a:	d042      	beq.n	80017d2 <HAL_I2C_Init+0x136>
 800174c:	f3c3 030b 	ubfx	r3, r3, #0, #12
 8001750:	4319      	orrs	r1, r3
 8001752:	61d1      	str	r1, [r2, #28]
 8001754:	e9d4 3007 	ldrd	r3, r0, [r4, #28]
 8001758:	6811      	ldr	r1, [r2, #0]
 800175a:	4303      	orrs	r3, r0
 800175c:	f021 01c0 	bic.w	r1, r1, #192	; 0xc0
 8001760:	430b      	orrs	r3, r1
 8001762:	6013      	str	r3, [r2, #0]
 8001764:	6891      	ldr	r1, [r2, #8]
 8001766:	e9d4 0303 	ldrd	r0, r3, [r4, #12]
 800176a:	f421 4103 	bic.w	r1, r1, #33536	; 0x8300
 800176e:	4303      	orrs	r3, r0
 8001770:	f021 01ff 	bic.w	r1, r1, #255	; 0xff
 8001774:	430b      	orrs	r3, r1
 8001776:	6093      	str	r3, [r2, #8]
 8001778:	e9d4 3005 	ldrd	r3, r0, [r4, #20]
 800177c:	68d1      	ldr	r1, [r2, #12]
 800177e:	4303      	orrs	r3, r0
 8001780:	f021 01ff 	bic.w	r1, r1, #255	; 0xff
 8001784:	430b      	orrs	r3, r1
 8001786:	60d3      	str	r3, [r2, #12]
 8001788:	6813      	ldr	r3, [r2, #0]
 800178a:	f043 0301 	orr.w	r3, r3, #1
 800178e:	6013      	str	r3, [r2, #0]
 8001790:	2000      	movs	r0, #0
 8001792:	2320      	movs	r3, #32
 8001794:	6420      	str	r0, [r4, #64]	; 0x40
 8001796:	f884 303d 	strb.w	r3, [r4, #61]	; 0x3d
 800179a:	6320      	str	r0, [r4, #48]	; 0x30
 800179c:	f884 003e 	strb.w	r0, [r4, #62]	; 0x3e
 80017a0:	e780      	b.n	80016a4 <HAL_I2C_Init+0x8>
 80017a2:	68a0      	ldr	r0, [r4, #8]
 80017a4:	b950      	cbnz	r0, 80017bc <HAL_I2C_Init+0x120>
 80017a6:	eb05 0545 	add.w	r5, r5, r5, lsl #1
 80017aa:	fbb3 f3f5 	udiv	r3, r3, r5
 80017ae:	3301      	adds	r3, #1
 80017b0:	f3c3 030b 	ubfx	r3, r3, #0, #12
 80017b4:	b17b      	cbz	r3, 80017d6 <HAL_I2C_Init+0x13a>
 80017b6:	f443 4300 	orr.w	r3, r3, #32768	; 0x8000
 80017ba:	e7c9      	b.n	8001750 <HAL_I2C_Init+0xb4>
 80017bc:	2019      	movs	r0, #25
 80017be:	4368      	muls	r0, r5
 80017c0:	fbb3 f3f0 	udiv	r3, r3, r0
 80017c4:	3301      	adds	r3, #1
 80017c6:	f3c3 030b 	ubfx	r3, r3, #0, #12
 80017ca:	b123      	cbz	r3, 80017d6 <HAL_I2C_Init+0x13a>
 80017cc:	f443 4340 	orr.w	r3, r3, #49152	; 0xc000
 80017d0:	e7be      	b.n	8001750 <HAL_I2C_Init+0xb4>
 80017d2:	2304      	movs	r3, #4
 80017d4:	e7bc      	b.n	8001750 <HAL_I2C_Init+0xb4>
 80017d6:	2301      	movs	r3, #1
 80017d8:	e7ba      	b.n	8001750 <HAL_I2C_Init+0xb4>
 80017da:	bf00      	nop
 80017dc:	000186a0 	.word	0x000186a0
 80017e0:	001e847f 	.word	0x001e847f
 80017e4:	003d08ff 	.word	0x003d08ff
 80017e8:	000f4240 	.word	0x000f4240

080017ec <HAL_PCD_Init>:
 80017ec:	b5f0      	push	{r4, r5, r6, r7, lr}
 80017ee:	4604      	mov	r4, r0
 80017f0:	b08b      	sub	sp, #44	; 0x2c
 80017f2:	b360      	cbz	r0, 800184e <HAL_PCD_Init+0x62>
 80017f4:	f890 34bd 	ldrb.w	r3, [r0, #1213]	; 0x4bd
 80017f8:	6805      	ldr	r5, [r0, #0]
 80017fa:	f003 02ff 	and.w	r2, r3, #255	; 0xff
 80017fe:	b91b      	cbnz	r3, 8001808 <HAL_PCD_Init+0x1c>
 8001800:	f880 24bc 	strb.w	r2, [r0, #1212]	; 0x4bc
 8001804:	f7ff fa42 	bl	8000c8c <HAL_PCD_MspInit>
 8001808:	2303      	movs	r3, #3
 800180a:	f884 34bd 	strb.w	r3, [r4, #1213]	; 0x4bd
 800180e:	6beb      	ldr	r3, [r5, #60]	; 0x3c
 8001810:	4625      	mov	r5, r4
 8001812:	f413 7380 	ands.w	r3, r3, #256	; 0x100
 8001816:	f855 0b10 	ldr.w	r0, [r5], #16
 800181a:	bf08      	it	eq
 800181c:	6123      	streq	r3, [r4, #16]
 800181e:	f001 fa4d 	bl	8002cbc <USB_DisableGlobalInt>
 8001822:	cd0f      	ldmia	r5!, {r0, r1, r2, r3}
 8001824:	466e      	mov	r6, sp
 8001826:	c60f      	stmia	r6!, {r0, r1, r2, r3}
 8001828:	cd0f      	ldmia	r5!, {r0, r1, r2, r3}
 800182a:	c60f      	stmia	r6!, {r0, r1, r2, r3}
 800182c:	e895 0003 	ldmia.w	r5, {r0, r1}
 8001830:	e886 0003 	stmia.w	r6, {r0, r1}
 8001834:	4625      	mov	r5, r4
 8001836:	1d27      	adds	r7, r4, #4
 8001838:	e897 000e 	ldmia.w	r7, {r1, r2, r3}
 800183c:	f855 0b10 	ldr.w	r0, [r5], #16
 8001840:	f001 f9fc 	bl	8002c3c <USB_CoreInit>
 8001844:	4606      	mov	r6, r0
 8001846:	b120      	cbz	r0, 8001852 <HAL_PCD_Init+0x66>
 8001848:	2302      	movs	r3, #2
 800184a:	f884 34bd 	strb.w	r3, [r4, #1213]	; 0x4bd
 800184e:	2501      	movs	r5, #1
 8001850:	e054      	b.n	80018fc <HAL_PCD_Init+0x110>
 8001852:	4601      	mov	r1, r0
 8001854:	6820      	ldr	r0, [r4, #0]
 8001856:	f001 fa37 	bl	8002cc8 <USB_SetCurrentMode>
 800185a:	4630      	mov	r0, r6
 800185c:	f8d4 c004 	ldr.w	ip, [r4, #4]
 8001860:	2624      	movs	r6, #36	; 0x24
 8001862:	f04f 0e01 	mov.w	lr, #1
 8001866:	4601      	mov	r1, r0
 8001868:	b2c2      	uxtb	r2, r0
 800186a:	4594      	cmp	ip, r2
 800186c:	f100 0001 	add.w	r0, r0, #1
 8001870:	d81c      	bhi.n	80018ac <HAL_PCD_Init+0xc0>
 8001872:	2300      	movs	r3, #0
 8001874:	2624      	movs	r6, #36	; 0x24
 8001876:	4619      	mov	r1, r3
 8001878:	b2d8      	uxtb	r0, r3
 800187a:	4584      	cmp	ip, r0
 800187c:	f103 0301 	add.w	r3, r3, #1
 8001880:	d822      	bhi.n	80018c8 <HAL_PCD_Init+0xdc>
 8001882:	cd0f      	ldmia	r5!, {r0, r1, r2, r3}
 8001884:	466e      	mov	r6, sp
 8001886:	c60f      	stmia	r6!, {r0, r1, r2, r3}
 8001888:	cd0f      	ldmia	r5!, {r0, r1, r2, r3}
 800188a:	c60f      	stmia	r6!, {r0, r1, r2, r3}
 800188c:	e895 0003 	ldmia.w	r5, {r0, r1}
 8001890:	e886 0003 	stmia.w	r6, {r0, r1}
 8001894:	e897 000e 	ldmia.w	r7, {r1, r2, r3}
 8001898:	6820      	ldr	r0, [r4, #0]
 800189a:	f001 fa97 	bl	8002dcc <USB_DevInit>
 800189e:	2301      	movs	r3, #1
 80018a0:	4605      	mov	r5, r0
 80018a2:	b1f0      	cbz	r0, 80018e2 <HAL_PCD_Init+0xf6>
 80018a4:	2202      	movs	r2, #2
 80018a6:	f884 24bd 	strb.w	r2, [r4, #1213]	; 0x4bd
 80018aa:	e7d0      	b.n	800184e <HAL_PCD_Init+0x62>
 80018ac:	fb06 4302 	mla	r3, r6, r2, r4
 80018b0:	e9c3 1112 	strd	r1, r1, [r3, #72]	; 0x48
 80018b4:	f883 e03d 	strb.w	lr, [r3, #61]	; 0x3d
 80018b8:	f883 203c 	strb.w	r2, [r3, #60]	; 0x3c
 80018bc:	f8a3 2044 	strh.w	r2, [r3, #68]	; 0x44
 80018c0:	f883 1040 	strb.w	r1, [r3, #64]	; 0x40
 80018c4:	6559      	str	r1, [r3, #84]	; 0x54
 80018c6:	e7cf      	b.n	8001868 <HAL_PCD_Init+0x7c>
 80018c8:	fb06 4200 	mla	r2, r6, r0, r4
 80018cc:	e9c2 11a2 	strd	r1, r1, [r2, #648]	; 0x288
 80018d0:	f882 127d 	strb.w	r1, [r2, #637]	; 0x27d
 80018d4:	f882 027c 	strb.w	r0, [r2, #636]	; 0x27c
 80018d8:	f882 1280 	strb.w	r1, [r2, #640]	; 0x280
 80018dc:	f8c2 1294 	str.w	r1, [r2, #660]	; 0x294
 80018e0:	e7ca      	b.n	8001878 <HAL_PCD_Init+0x8c>
 80018e2:	f884 0038 	strb.w	r0, [r4, #56]	; 0x38
 80018e6:	f884 34bd 	strb.w	r3, [r4, #1213]	; 0x4bd
 80018ea:	6a63      	ldr	r3, [r4, #36]	; 0x24
 80018ec:	2b01      	cmp	r3, #1
 80018ee:	d102      	bne.n	80018f6 <HAL_PCD_Init+0x10a>
 80018f0:	4620      	mov	r0, r4
 80018f2:	f000 f806 	bl	8001902 <HAL_PCDEx_ActivateLPM>
 80018f6:	6820      	ldr	r0, [r4, #0]
 80018f8:	f001 fb1e 	bl	8002f38 <USB_DevDisconnect>
 80018fc:	4628      	mov	r0, r5
 80018fe:	b00b      	add	sp, #44	; 0x2c
 8001900:	bdf0      	pop	{r4, r5, r6, r7, pc}

08001902 <HAL_PCDEx_ActivateLPM>:
 8001902:	6802      	ldr	r2, [r0, #0]
 8001904:	2100      	movs	r1, #0
 8001906:	f880 14f4 	strb.w	r1, [r0, #1268]	; 0x4f4
 800190a:	2301      	movs	r3, #1
 800190c:	f8c0 3500 	str.w	r3, [r0, #1280]	; 0x500
 8001910:	6993      	ldr	r3, [r2, #24]
 8001912:	f043 6300 	orr.w	r3, r3, #134217728	; 0x8000000
 8001916:	6193      	str	r3, [r2, #24]
 8001918:	6d53      	ldr	r3, [r2, #84]	; 0x54
 800191a:	f043 5380 	orr.w	r3, r3, #268435456	; 0x10000000
 800191e:	f043 0303 	orr.w	r3, r3, #3
 8001922:	6553      	str	r3, [r2, #84]	; 0x54
 8001924:	4608      	mov	r0, r1
 8001926:	4770      	bx	lr

08001928 <HAL_RCC_ClockConfig>:
 8001928:	e92d 41f0 	stmdb	sp!, {r4, r5, r6, r7, r8, lr}
 800192c:	460d      	mov	r5, r1
 800192e:	4604      	mov	r4, r0
 8001930:	b910      	cbnz	r0, 8001938 <HAL_RCC_ClockConfig+0x10>
 8001932:	2001      	movs	r0, #1
 8001934:	e8bd 81f0 	ldmia.w	sp!, {r4, r5, r6, r7, r8, pc}
 8001938:	4b43      	ldr	r3, [pc, #268]	; (8001a48 <HAL_RCC_ClockConfig+0x120>)
 800193a:	681a      	ldr	r2, [r3, #0]
 800193c:	f002 020f 	and.w	r2, r2, #15
 8001940:	428a      	cmp	r2, r1
 8001942:	d328      	bcc.n	8001996 <HAL_RCC_ClockConfig+0x6e>
 8001944:	6821      	ldr	r1, [r4, #0]
 8001946:	078f      	lsls	r7, r1, #30
 8001948:	d42d      	bmi.n	80019a6 <HAL_RCC_ClockConfig+0x7e>
 800194a:	07c8      	lsls	r0, r1, #31
 800194c:	d440      	bmi.n	80019d0 <HAL_RCC_ClockConfig+0xa8>
 800194e:	4b3e      	ldr	r3, [pc, #248]	; (8001a48 <HAL_RCC_ClockConfig+0x120>)
 8001950:	681a      	ldr	r2, [r3, #0]
 8001952:	f002 020f 	and.w	r2, r2, #15
 8001956:	42aa      	cmp	r2, r5
 8001958:	d865      	bhi.n	8001a26 <HAL_RCC_ClockConfig+0xfe>
 800195a:	6822      	ldr	r2, [r4, #0]
 800195c:	0751      	lsls	r1, r2, #29
 800195e:	d46b      	bmi.n	8001a38 <HAL_RCC_ClockConfig+0x110>
 8001960:	0713      	lsls	r3, r2, #28
 8001962:	d507      	bpl.n	8001974 <HAL_RCC_ClockConfig+0x4c>
 8001964:	4a39      	ldr	r2, [pc, #228]	; (8001a4c <HAL_RCC_ClockConfig+0x124>)
 8001966:	6921      	ldr	r1, [r4, #16]
 8001968:	6893      	ldr	r3, [r2, #8]
 800196a:	f423 4360 	bic.w	r3, r3, #57344	; 0xe000
 800196e:	ea43 03c1 	orr.w	r3, r3, r1, lsl #3
 8001972:	6093      	str	r3, [r2, #8]
 8001974:	f000 faba 	bl	8001eec <HAL_RCC_GetSysClockFreq>
 8001978:	4b34      	ldr	r3, [pc, #208]	; (8001a4c <HAL_RCC_ClockConfig+0x124>)
 800197a:	4a35      	ldr	r2, [pc, #212]	; (8001a50 <HAL_RCC_ClockConfig+0x128>)
 800197c:	689b      	ldr	r3, [r3, #8]
 800197e:	f3c3 1303 	ubfx	r3, r3, #4, #4
 8001982:	5cd3      	ldrb	r3, [r2, r3]
 8001984:	40d8      	lsrs	r0, r3
 8001986:	4b33      	ldr	r3, [pc, #204]	; (8001a54 <HAL_RCC_ClockConfig+0x12c>)
 8001988:	6018      	str	r0, [r3, #0]
 800198a:	4b33      	ldr	r3, [pc, #204]	; (8001a58 <HAL_RCC_ClockConfig+0x130>)
 800198c:	6818      	ldr	r0, [r3, #0]
 800198e:	f7ff f9c5 	bl	8000d1c <HAL_InitTick>
 8001992:	2000      	movs	r0, #0
 8001994:	e7ce      	b.n	8001934 <HAL_RCC_ClockConfig+0xc>
 8001996:	b2ca      	uxtb	r2, r1
 8001998:	701a      	strb	r2, [r3, #0]
 800199a:	681b      	ldr	r3, [r3, #0]
 800199c:	f003 030f 	and.w	r3, r3, #15
 80019a0:	428b      	cmp	r3, r1
 80019a2:	d1c6      	bne.n	8001932 <HAL_RCC_ClockConfig+0xa>
 80019a4:	e7ce      	b.n	8001944 <HAL_RCC_ClockConfig+0x1c>
 80019a6:	4b29      	ldr	r3, [pc, #164]	; (8001a4c <HAL_RCC_ClockConfig+0x124>)
 80019a8:	f011 0f04 	tst.w	r1, #4
 80019ac:	bf1e      	ittt	ne
 80019ae:	689a      	ldrne	r2, [r3, #8]
 80019b0:	f442 52e0 	orrne.w	r2, r2, #7168	; 0x1c00
 80019b4:	609a      	strne	r2, [r3, #8]
 80019b6:	070e      	lsls	r6, r1, #28
 80019b8:	bf42      	ittt	mi
 80019ba:	689a      	ldrmi	r2, [r3, #8]
 80019bc:	f442 4260 	orrmi.w	r2, r2, #57344	; 0xe000
 80019c0:	609a      	strmi	r2, [r3, #8]
 80019c2:	689a      	ldr	r2, [r3, #8]
 80019c4:	68a0      	ldr	r0, [r4, #8]
 80019c6:	f022 02f0 	bic.w	r2, r2, #240	; 0xf0
 80019ca:	4302      	orrs	r2, r0
 80019cc:	609a      	str	r2, [r3, #8]
 80019ce:	e7bc      	b.n	800194a <HAL_RCC_ClockConfig+0x22>
 80019d0:	6862      	ldr	r2, [r4, #4]
 80019d2:	4b1e      	ldr	r3, [pc, #120]	; (8001a4c <HAL_RCC_ClockConfig+0x124>)
 80019d4:	2a01      	cmp	r2, #1
 80019d6:	d11c      	bne.n	8001a12 <HAL_RCC_ClockConfig+0xea>
 80019d8:	681b      	ldr	r3, [r3, #0]
 80019da:	f413 3f00 	tst.w	r3, #131072	; 0x20000
 80019de:	d0a8      	beq.n	8001932 <HAL_RCC_ClockConfig+0xa>
 80019e0:	4e1a      	ldr	r6, [pc, #104]	; (8001a4c <HAL_RCC_ClockConfig+0x124>)
 80019e2:	68b3      	ldr	r3, [r6, #8]
 80019e4:	f023 0303 	bic.w	r3, r3, #3
 80019e8:	4313      	orrs	r3, r2
 80019ea:	60b3      	str	r3, [r6, #8]
 80019ec:	f7ff fa5c 	bl	8000ea8 <HAL_GetTick>
 80019f0:	f241 3888 	movw	r8, #5000	; 0x1388
 80019f4:	4607      	mov	r7, r0
 80019f6:	68b3      	ldr	r3, [r6, #8]
 80019f8:	6862      	ldr	r2, [r4, #4]
 80019fa:	f003 030c 	and.w	r3, r3, #12
 80019fe:	ebb3 0f82 	cmp.w	r3, r2, lsl #2
 8001a02:	d0a4      	beq.n	800194e <HAL_RCC_ClockConfig+0x26>
 8001a04:	f7ff fa50 	bl	8000ea8 <HAL_GetTick>
 8001a08:	1bc0      	subs	r0, r0, r7
 8001a0a:	4540      	cmp	r0, r8
 8001a0c:	d9f3      	bls.n	80019f6 <HAL_RCC_ClockConfig+0xce>
 8001a0e:	2003      	movs	r0, #3
 8001a10:	e790      	b.n	8001934 <HAL_RCC_ClockConfig+0xc>
 8001a12:	1e91      	subs	r1, r2, #2
 8001a14:	2901      	cmp	r1, #1
 8001a16:	681b      	ldr	r3, [r3, #0]
 8001a18:	d802      	bhi.n	8001a20 <HAL_RCC_ClockConfig+0xf8>
 8001a1a:	f013 7f00 	tst.w	r3, #33554432	; 0x2000000
 8001a1e:	e7de      	b.n	80019de <HAL_RCC_ClockConfig+0xb6>
 8001a20:	f013 0f02 	tst.w	r3, #2
 8001a24:	e7db      	b.n	80019de <HAL_RCC_ClockConfig+0xb6>
 8001a26:	b2ea      	uxtb	r2, r5
 8001a28:	701a      	strb	r2, [r3, #0]
 8001a2a:	681b      	ldr	r3, [r3, #0]
 8001a2c:	f003 030f 	and.w	r3, r3, #15
 8001a30:	42ab      	cmp	r3, r5
 8001a32:	f47f af7e 	bne.w	8001932 <HAL_RCC_ClockConfig+0xa>
 8001a36:	e790      	b.n	800195a <HAL_RCC_ClockConfig+0x32>
 8001a38:	4904      	ldr	r1, [pc, #16]	; (8001a4c <HAL_RCC_ClockConfig+0x124>)
 8001a3a:	68e0      	ldr	r0, [r4, #12]
 8001a3c:	688b      	ldr	r3, [r1, #8]
 8001a3e:	f423 53e0 	bic.w	r3, r3, #7168	; 0x1c00
 8001a42:	4303      	orrs	r3, r0
 8001a44:	608b      	str	r3, [r1, #8]
 8001a46:	e78b      	b.n	8001960 <HAL_RCC_ClockConfig+0x38>
 8001a48:	40023c00 	.word	0x40023c00
 8001a4c:	40023800 	.word	0x40023800
 8001a50:	08002fc4 	.word	0x08002fc4
 8001a54:	20000000 	.word	0x20000000
 8001a58:	20000008 	.word	0x20000008

08001a5c <HAL_RCC_GetPCLK1Freq>:
 8001a5c:	4b04      	ldr	r3, [pc, #16]	; (8001a70 <HAL_RCC_GetPCLK1Freq+0x14>)
 8001a5e:	4a05      	ldr	r2, [pc, #20]	; (8001a74 <HAL_RCC_GetPCLK1Freq+0x18>)
 8001a60:	689b      	ldr	r3, [r3, #8]
 8001a62:	f3c3 2382 	ubfx	r3, r3, #10, #3
 8001a66:	5cd3      	ldrb	r3, [r2, r3]
 8001a68:	4a03      	ldr	r2, [pc, #12]	; (8001a78 <HAL_RCC_GetPCLK1Freq+0x1c>)
 8001a6a:	6810      	ldr	r0, [r2, #0]
 8001a6c:	40d8      	lsrs	r0, r3
 8001a6e:	4770      	bx	lr
 8001a70:	40023800 	.word	0x40023800
 8001a74:	08002fd4 	.word	0x08002fd4
 8001a78:	20000000 	.word	0x20000000

08001a7c <HAL_RCC_GetPCLK2Freq>:
 8001a7c:	4b04      	ldr	r3, [pc, #16]	; (8001a90 <HAL_RCC_GetPCLK2Freq+0x14>)
 8001a7e:	4a05      	ldr	r2, [pc, #20]	; (8001a94 <HAL_RCC_GetPCLK2Freq+0x18>)
 8001a80:	689b      	ldr	r3, [r3, #8]
 8001a82:	f3c3 3342 	ubfx	r3, r3, #13, #3
 8001a86:	5cd3      	ldrb	r3, [r2, r3]
 8001a88:	4a03      	ldr	r2, [pc, #12]	; (8001a98 <HAL_RCC_GetPCLK2Freq+0x1c>)
 8001a8a:	6810      	ldr	r0, [r2, #0]
 8001a8c:	40d8      	lsrs	r0, r3
 8001a8e:	4770      	bx	lr
 8001a90:	40023800 	.word	0x40023800
 8001a94:	08002fd4 	.word	0x08002fd4
 8001a98:	20000000 	.word	0x20000000

08001a9c <HAL_RCC_GetClockConfig>:
 8001a9c:	230f      	movs	r3, #15
 8001a9e:	6003      	str	r3, [r0, #0]
 8001aa0:	4b0b      	ldr	r3, [pc, #44]	; (8001ad0 <HAL_RCC_GetClockConfig+0x34>)
 8001aa2:	689a      	ldr	r2, [r3, #8]
 8001aa4:	f002 0203 	and.w	r2, r2, #3
 8001aa8:	6042      	str	r2, [r0, #4]
 8001aaa:	689a      	ldr	r2, [r3, #8]
 8001aac:	f002 02f0 	and.w	r2, r2, #240	; 0xf0
 8001ab0:	6082      	str	r2, [r0, #8]
 8001ab2:	689a      	ldr	r2, [r3, #8]
 8001ab4:	f402 52e0 	and.w	r2, r2, #7168	; 0x1c00
 8001ab8:	60c2      	str	r2, [r0, #12]
 8001aba:	689b      	ldr	r3, [r3, #8]
 8001abc:	08db      	lsrs	r3, r3, #3
 8001abe:	f403 53e0 	and.w	r3, r3, #7168	; 0x1c00
 8001ac2:	6103      	str	r3, [r0, #16]
 8001ac4:	4b03      	ldr	r3, [pc, #12]	; (8001ad4 <HAL_RCC_GetClockConfig+0x38>)
 8001ac6:	681b      	ldr	r3, [r3, #0]
 8001ac8:	f003 030f 	and.w	r3, r3, #15
 8001acc:	600b      	str	r3, [r1, #0]
 8001ace:	4770      	bx	lr
 8001ad0:	40023800 	.word	0x40023800
 8001ad4:	40023c00 	.word	0x40023c00

08001ad8 <HAL_RCCEx_PeriphCLKConfig>:
 8001ad8:	6803      	ldr	r3, [r0, #0]
 8001ada:	e92d 43f7 	stmdb	sp!, {r0, r1, r2, r4, r5, r6, r7, r8, r9, lr}
 8001ade:	f013 0601 	ands.w	r6, r3, #1
 8001ae2:	4604      	mov	r4, r0
 8001ae4:	d00b      	beq.n	8001afe <HAL_RCCEx_PeriphCLKConfig+0x26>
 8001ae6:	49ac      	ldr	r1, [pc, #688]	; (8001d98 <HAL_RCCEx_PeriphCLKConfig+0x2c0>)
 8001ae8:	6b86      	ldr	r6, [r0, #56]	; 0x38
 8001aea:	f8d1 208c 	ldr.w	r2, [r1, #140]	; 0x8c
 8001aee:	f022 62c0 	bic.w	r2, r2, #100663296	; 0x6000000
 8001af2:	4332      	orrs	r2, r6
 8001af4:	fab6 f686 	clz	r6, r6
 8001af8:	f8c1 208c 	str.w	r2, [r1, #140]	; 0x8c
 8001afc:	0976      	lsrs	r6, r6, #5
 8001afe:	079a      	lsls	r2, r3, #30
 8001b00:	d50b      	bpl.n	8001b1a <HAL_RCCEx_PeriphCLKConfig+0x42>
 8001b02:	48a5      	ldr	r0, [pc, #660]	; (8001d98 <HAL_RCCEx_PeriphCLKConfig+0x2c0>)
 8001b04:	6be1      	ldr	r1, [r4, #60]	; 0x3c
 8001b06:	f8d0 208c 	ldr.w	r2, [r0, #140]	; 0x8c
 8001b0a:	f022 52c0 	bic.w	r2, r2, #402653184	; 0x18000000
 8001b0e:	430a      	orrs	r2, r1
 8001b10:	2900      	cmp	r1, #0
 8001b12:	f8c0 208c 	str.w	r2, [r0, #140]	; 0x8c
 8001b16:	bf08      	it	eq
 8001b18:	2601      	moveq	r6, #1
 8001b1a:	f013 0504 	ands.w	r5, r3, #4
 8001b1e:	d012      	beq.n	8001b46 <HAL_RCCEx_PeriphCLKConfig+0x6e>
 8001b20:	499d      	ldr	r1, [pc, #628]	; (8001d98 <HAL_RCCEx_PeriphCLKConfig+0x2c0>)
 8001b22:	6b25      	ldr	r5, [r4, #48]	; 0x30
 8001b24:	f8d1 208c 	ldr.w	r2, [r1, #140]	; 0x8c
 8001b28:	f5b5 1f80 	cmp.w	r5, #1048576	; 0x100000
 8001b2c:	f422 1240 	bic.w	r2, r2, #3145728	; 0x300000
 8001b30:	ea42 0205 	orr.w	r2, r2, r5
 8001b34:	bf18      	it	ne
 8001b36:	fab5 f585 	clzne	r5, r5
 8001b3a:	f8c1 208c 	str.w	r2, [r1, #140]	; 0x8c
 8001b3e:	bf12      	itee	ne
 8001b40:	096d      	lsrne	r5, r5, #5
 8001b42:	2500      	moveq	r5, #0
 8001b44:	2601      	moveq	r6, #1
 8001b46:	071f      	lsls	r7, r3, #28
 8001b48:	d50f      	bpl.n	8001b6a <HAL_RCCEx_PeriphCLKConfig+0x92>
 8001b4a:	4893      	ldr	r0, [pc, #588]	; (8001d98 <HAL_RCCEx_PeriphCLKConfig+0x2c0>)
 8001b4c:	6b61      	ldr	r1, [r4, #52]	; 0x34
 8001b4e:	f8d0 208c 	ldr.w	r2, [r0, #140]	; 0x8c
 8001b52:	f422 0240 	bic.w	r2, r2, #12582912	; 0xc00000
 8001b56:	430a      	orrs	r2, r1
 8001b58:	f5b1 0f80 	cmp.w	r1, #4194304	; 0x400000
 8001b5c:	f8c0 208c 	str.w	r2, [r0, #140]	; 0x8c
 8001b60:	f000 810c 	beq.w	8001d7c <HAL_RCCEx_PeriphCLKConfig+0x2a4>
 8001b64:	2900      	cmp	r1, #0
 8001b66:	bf08      	it	eq
 8001b68:	2501      	moveq	r5, #1
 8001b6a:	0698      	lsls	r0, r3, #26
 8001b6c:	d534      	bpl.n	8001bd8 <HAL_RCCEx_PeriphCLKConfig+0x100>
 8001b6e:	2300      	movs	r3, #0
 8001b70:	9301      	str	r3, [sp, #4]
 8001b72:	4b89      	ldr	r3, [pc, #548]	; (8001d98 <HAL_RCCEx_PeriphCLKConfig+0x2c0>)
 8001b74:	4f89      	ldr	r7, [pc, #548]	; (8001d9c <HAL_RCCEx_PeriphCLKConfig+0x2c4>)
 8001b76:	6c1a      	ldr	r2, [r3, #64]	; 0x40
 8001b78:	f042 5280 	orr.w	r2, r2, #268435456	; 0x10000000
 8001b7c:	641a      	str	r2, [r3, #64]	; 0x40
 8001b7e:	6c1b      	ldr	r3, [r3, #64]	; 0x40
 8001b80:	f003 5380 	and.w	r3, r3, #268435456	; 0x10000000
 8001b84:	9301      	str	r3, [sp, #4]
 8001b86:	9b01      	ldr	r3, [sp, #4]
 8001b88:	683b      	ldr	r3, [r7, #0]
 8001b8a:	f443 7380 	orr.w	r3, r3, #256	; 0x100
 8001b8e:	603b      	str	r3, [r7, #0]
 8001b90:	f7ff f98a 	bl	8000ea8 <HAL_GetTick>
 8001b94:	4680      	mov	r8, r0
 8001b96:	683b      	ldr	r3, [r7, #0]
 8001b98:	05d9      	lsls	r1, r3, #23
 8001b9a:	f140 80f1 	bpl.w	8001d80 <HAL_RCCEx_PeriphCLKConfig+0x2a8>
 8001b9e:	4f7e      	ldr	r7, [pc, #504]	; (8001d98 <HAL_RCCEx_PeriphCLKConfig+0x2c0>)
 8001ba0:	6c22      	ldr	r2, [r4, #64]	; 0x40
 8001ba2:	6f3b      	ldr	r3, [r7, #112]	; 0x70
 8001ba4:	f413 7340 	ands.w	r3, r3, #768	; 0x300
 8001ba8:	f040 80fe 	bne.w	8001da8 <HAL_RCCEx_PeriphCLKConfig+0x2d0>
 8001bac:	6c23      	ldr	r3, [r4, #64]	; 0x40
 8001bae:	f403 7240 	and.w	r2, r3, #768	; 0x300
 8001bb2:	f5b2 7f40 	cmp.w	r2, #768	; 0x300
 8001bb6:	4a78      	ldr	r2, [pc, #480]	; (8001d98 <HAL_RCCEx_PeriphCLKConfig+0x2c0>)
 8001bb8:	f040 811a 	bne.w	8001df0 <HAL_RCCEx_PeriphCLKConfig+0x318>
 8001bbc:	6891      	ldr	r1, [r2, #8]
 8001bbe:	f023 4070 	bic.w	r0, r3, #4026531840	; 0xf0000000
 8001bc2:	f421 11f8 	bic.w	r1, r1, #2031616	; 0x1f0000
 8001bc6:	f420 7040 	bic.w	r0, r0, #768	; 0x300
 8001bca:	4301      	orrs	r1, r0
 8001bcc:	6091      	str	r1, [r2, #8]
 8001bce:	6f11      	ldr	r1, [r2, #112]	; 0x70
 8001bd0:	f3c3 030b 	ubfx	r3, r3, #0, #12
 8001bd4:	430b      	orrs	r3, r1
 8001bd6:	6713      	str	r3, [r2, #112]	; 0x70
 8001bd8:	6823      	ldr	r3, [r4, #0]
 8001bda:	06d8      	lsls	r0, r3, #27
 8001bdc:	bf42      	ittt	mi
 8001bde:	4b70      	ldrmi	r3, [pc, #448]	; (8001da0 <HAL_RCCEx_PeriphCLKConfig+0x2c8>)
 8001be0:	f894 2058 	ldrbmi.w	r2, [r4, #88]	; 0x58
 8001be4:	f8c3 21e0 	strmi.w	r2, [r3, #480]	; 0x1e0
 8001be8:	6823      	ldr	r3, [r4, #0]
 8001bea:	0619      	lsls	r1, r3, #24
 8001bec:	d508      	bpl.n	8001c00 <HAL_RCCEx_PeriphCLKConfig+0x128>
 8001bee:	496a      	ldr	r1, [pc, #424]	; (8001d98 <HAL_RCCEx_PeriphCLKConfig+0x2c0>)
 8001bf0:	6ce0      	ldr	r0, [r4, #76]	; 0x4c
 8001bf2:	f8d1 2094 	ldr.w	r2, [r1, #148]	; 0x94
 8001bf6:	f422 0240 	bic.w	r2, r2, #12582912	; 0xc00000
 8001bfa:	4302      	orrs	r2, r0
 8001bfc:	f8c1 2094 	str.w	r2, [r1, #148]	; 0x94
 8001c00:	065a      	lsls	r2, r3, #25
 8001c02:	d508      	bpl.n	8001c16 <HAL_RCCEx_PeriphCLKConfig+0x13e>
 8001c04:	4964      	ldr	r1, [pc, #400]	; (8001d98 <HAL_RCCEx_PeriphCLKConfig+0x2c0>)
 8001c06:	6ca0      	ldr	r0, [r4, #72]	; 0x48
 8001c08:	f8d1 2094 	ldr.w	r2, [r1, #148]	; 0x94
 8001c0c:	f022 6280 	bic.w	r2, r2, #67108864	; 0x4000000
 8001c10:	4302      	orrs	r2, r0
 8001c12:	f8c1 2094 	str.w	r2, [r1, #148]	; 0x94
 8001c16:	05df      	lsls	r7, r3, #23
 8001c18:	d50c      	bpl.n	8001c34 <HAL_RCCEx_PeriphCLKConfig+0x15c>
 8001c1a:	485f      	ldr	r0, [pc, #380]	; (8001d98 <HAL_RCCEx_PeriphCLKConfig+0x2c0>)
 8001c1c:	6d61      	ldr	r1, [r4, #84]	; 0x54
 8001c1e:	f8d0 2094 	ldr.w	r2, [r0, #148]	; 0x94
 8001c22:	f022 6200 	bic.w	r2, r2, #134217728	; 0x8000000
 8001c26:	430a      	orrs	r2, r1
 8001c28:	f1b1 6f00 	cmp.w	r1, #134217728	; 0x8000000
 8001c2c:	f8c0 2094 	str.w	r2, [r0, #148]	; 0x94
 8001c30:	bf08      	it	eq
 8001c32:	2501      	moveq	r5, #1
 8001c34:	0598      	lsls	r0, r3, #22
 8001c36:	d508      	bpl.n	8001c4a <HAL_RCCEx_PeriphCLKConfig+0x172>
 8001c38:	4957      	ldr	r1, [pc, #348]	; (8001d98 <HAL_RCCEx_PeriphCLKConfig+0x2c0>)
 8001c3a:	6c60      	ldr	r0, [r4, #68]	; 0x44
 8001c3c:	f8d1 2094 	ldr.w	r2, [r1, #148]	; 0x94
 8001c40:	f022 5280 	bic.w	r2, r2, #268435456	; 0x10000000
 8001c44:	4302      	orrs	r2, r0
 8001c46:	f8c1 2094 	str.w	r2, [r1, #148]	; 0x94
 8001c4a:	0559      	lsls	r1, r3, #21
 8001c4c:	f100 80d4 	bmi.w	8001df8 <HAL_RCCEx_PeriphCLKConfig+0x320>
 8001c50:	2e01      	cmp	r6, #1
 8001c52:	f040 80df 	bne.w	8001e14 <HAL_RCCEx_PeriphCLKConfig+0x33c>
 8001c56:	4b53      	ldr	r3, [pc, #332]	; (8001da4 <HAL_RCCEx_PeriphCLKConfig+0x2cc>)
 8001c58:	4f4f      	ldr	r7, [pc, #316]	; (8001d98 <HAL_RCCEx_PeriphCLKConfig+0x2c0>)
 8001c5a:	2200      	movs	r2, #0
 8001c5c:	669a      	str	r2, [r3, #104]	; 0x68
 8001c5e:	f7ff f923 	bl	8000ea8 <HAL_GetTick>
 8001c62:	4606      	mov	r6, r0
 8001c64:	683b      	ldr	r3, [r7, #0]
 8001c66:	011a      	lsls	r2, r3, #4
 8001c68:	f100 8129 	bmi.w	8001ebe <HAL_RCCEx_PeriphCLKConfig+0x3e6>
 8001c6c:	6822      	ldr	r2, [r4, #0]
 8001c6e:	07d3      	lsls	r3, r2, #31
 8001c70:	d501      	bpl.n	8001c76 <HAL_RCCEx_PeriphCLKConfig+0x19e>
 8001c72:	6ba3      	ldr	r3, [r4, #56]	; 0x38
 8001c74:	b11b      	cbz	r3, 8001c7e <HAL_RCCEx_PeriphCLKConfig+0x1a6>
 8001c76:	0797      	lsls	r7, r2, #30
 8001c78:	d515      	bpl.n	8001ca6 <HAL_RCCEx_PeriphCLKConfig+0x1ce>
 8001c7a:	6be3      	ldr	r3, [r4, #60]	; 0x3c
 8001c7c:	b99b      	cbnz	r3, 8001ca6 <HAL_RCCEx_PeriphCLKConfig+0x1ce>
 8001c7e:	4946      	ldr	r1, [pc, #280]	; (8001d98 <HAL_RCCEx_PeriphCLKConfig+0x2c0>)
 8001c80:	f8d1 3084 	ldr.w	r3, [r1, #132]	; 0x84
 8001c84:	f8d1 0084 	ldr.w	r0, [r1, #132]	; 0x84
 8001c88:	f403 3340 	and.w	r3, r3, #196608	; 0x30000
 8001c8c:	f000 6070 	and.w	r0, r0, #251658240	; 0xf000000
 8001c90:	4303      	orrs	r3, r0
 8001c92:	6860      	ldr	r0, [r4, #4]
 8001c94:	4303      	orrs	r3, r0
 8001c96:	68a0      	ldr	r0, [r4, #8]
 8001c98:	ea43 1380 	orr.w	r3, r3, r0, lsl #6
 8001c9c:	6960      	ldr	r0, [r4, #20]
 8001c9e:	ea43 7300 	orr.w	r3, r3, r0, lsl #28
 8001ca2:	f8c1 3084 	str.w	r3, [r1, #132]	; 0x84
 8001ca6:	0756      	lsls	r6, r2, #29
 8001ca8:	d503      	bpl.n	8001cb2 <HAL_RCCEx_PeriphCLKConfig+0x1da>
 8001caa:	6b23      	ldr	r3, [r4, #48]	; 0x30
 8001cac:	f5b3 1f80 	cmp.w	r3, #1048576	; 0x100000
 8001cb0:	d005      	beq.n	8001cbe <HAL_RCCEx_PeriphCLKConfig+0x1e6>
 8001cb2:	0710      	lsls	r0, r2, #28
 8001cb4:	d520      	bpl.n	8001cf8 <HAL_RCCEx_PeriphCLKConfig+0x220>
 8001cb6:	6b63      	ldr	r3, [r4, #52]	; 0x34
 8001cb8:	f5b3 0f80 	cmp.w	r3, #4194304	; 0x400000
 8001cbc:	d11c      	bne.n	8001cf8 <HAL_RCCEx_PeriphCLKConfig+0x220>
 8001cbe:	4936      	ldr	r1, [pc, #216]	; (8001d98 <HAL_RCCEx_PeriphCLKConfig+0x2c0>)
 8001cc0:	f8d1 3084 	ldr.w	r3, [r1, #132]	; 0x84
 8001cc4:	f8d1 0084 	ldr.w	r0, [r1, #132]	; 0x84
 8001cc8:	f403 3340 	and.w	r3, r3, #196608	; 0x30000
 8001ccc:	f000 40e0 	and.w	r0, r0, #1879048192	; 0x70000000
 8001cd0:	4303      	orrs	r3, r0
 8001cd2:	6860      	ldr	r0, [r4, #4]
 8001cd4:	4303      	orrs	r3, r0
 8001cd6:	68a0      	ldr	r0, [r4, #8]
 8001cd8:	ea43 1380 	orr.w	r3, r3, r0, lsl #6
 8001cdc:	6920      	ldr	r0, [r4, #16]
 8001cde:	ea43 6300 	orr.w	r3, r3, r0, lsl #24
 8001ce2:	f8c1 3084 	str.w	r3, [r1, #132]	; 0x84
 8001ce6:	f8d1 008c 	ldr.w	r0, [r1, #140]	; 0x8c
 8001cea:	6aa3      	ldr	r3, [r4, #40]	; 0x28
 8001cec:	f020 001f 	bic.w	r0, r0, #31
 8001cf0:	3b01      	subs	r3, #1
 8001cf2:	4303      	orrs	r3, r0
 8001cf4:	f8c1 308c 	str.w	r3, [r1, #140]	; 0x8c
 8001cf8:	0551      	lsls	r1, r2, #21
 8001cfa:	d51b      	bpl.n	8001d34 <HAL_RCCEx_PeriphCLKConfig+0x25c>
 8001cfc:	6d23      	ldr	r3, [r4, #80]	; 0x50
 8001cfe:	f1b3 5f00 	cmp.w	r3, #536870912	; 0x20000000
 8001d02:	d117      	bne.n	8001d34 <HAL_RCCEx_PeriphCLKConfig+0x25c>
 8001d04:	4824      	ldr	r0, [pc, #144]	; (8001d98 <HAL_RCCEx_PeriphCLKConfig+0x2c0>)
 8001d06:	6866      	ldr	r6, [r4, #4]
 8001d08:	f8d0 1084 	ldr.w	r1, [r0, #132]	; 0x84
 8001d0c:	f8d0 3084 	ldr.w	r3, [r0, #132]	; 0x84
 8001d10:	f003 43e0 	and.w	r3, r3, #1879048192	; 0x70000000
 8001d14:	4333      	orrs	r3, r6
 8001d16:	68a6      	ldr	r6, [r4, #8]
 8001d18:	f3c1 4101 	ubfx	r1, r1, #16, #2
 8001d1c:	3101      	adds	r1, #1
 8001d1e:	ea43 1386 	orr.w	r3, r3, r6, lsl #6
 8001d22:	ea43 6341 	orr.w	r3, r3, r1, lsl #25
 8001d26:	68e1      	ldr	r1, [r4, #12]
 8001d28:	0849      	lsrs	r1, r1, #1
 8001d2a:	3901      	subs	r1, #1
 8001d2c:	ea43 4301 	orr.w	r3, r3, r1, lsl #16
 8001d30:	f8c0 3084 	str.w	r3, [r0, #132]	; 0x84
 8001d34:	0512      	lsls	r2, r2, #20
 8001d36:	d511      	bpl.n	8001d5c <HAL_RCCEx_PeriphCLKConfig+0x284>
 8001d38:	6923      	ldr	r3, [r4, #16]
 8001d3a:	68a2      	ldr	r2, [r4, #8]
 8001d3c:	061b      	lsls	r3, r3, #24
 8001d3e:	ea43 1382 	orr.w	r3, r3, r2, lsl #6
 8001d42:	6862      	ldr	r2, [r4, #4]
 8001d44:	4313      	orrs	r3, r2
 8001d46:	6962      	ldr	r2, [r4, #20]
 8001d48:	ea43 7302 	orr.w	r3, r3, r2, lsl #28
 8001d4c:	68e2      	ldr	r2, [r4, #12]
 8001d4e:	0852      	lsrs	r2, r2, #1
 8001d50:	3a01      	subs	r2, #1
 8001d52:	ea43 4302 	orr.w	r3, r3, r2, lsl #16
 8001d56:	4a10      	ldr	r2, [pc, #64]	; (8001d98 <HAL_RCCEx_PeriphCLKConfig+0x2c0>)
 8001d58:	f8c2 3084 	str.w	r3, [r2, #132]	; 0x84
 8001d5c:	4b11      	ldr	r3, [pc, #68]	; (8001da4 <HAL_RCCEx_PeriphCLKConfig+0x2cc>)
 8001d5e:	4f0e      	ldr	r7, [pc, #56]	; (8001d98 <HAL_RCCEx_PeriphCLKConfig+0x2c0>)
 8001d60:	2201      	movs	r2, #1
 8001d62:	669a      	str	r2, [r3, #104]	; 0x68
 8001d64:	f7ff f8a0 	bl	8000ea8 <HAL_GetTick>
 8001d68:	4606      	mov	r6, r0
 8001d6a:	683b      	ldr	r3, [r7, #0]
 8001d6c:	011b      	lsls	r3, r3, #4
 8001d6e:	d455      	bmi.n	8001e1c <HAL_RCCEx_PeriphCLKConfig+0x344>
 8001d70:	f7ff f89a 	bl	8000ea8 <HAL_GetTick>
 8001d74:	1b80      	subs	r0, r0, r6
 8001d76:	2802      	cmp	r0, #2
 8001d78:	d9f7      	bls.n	8001d6a <HAL_RCCEx_PeriphCLKConfig+0x292>
 8001d7a:	e008      	b.n	8001d8e <HAL_RCCEx_PeriphCLKConfig+0x2b6>
 8001d7c:	2601      	movs	r6, #1
 8001d7e:	e6f4      	b.n	8001b6a <HAL_RCCEx_PeriphCLKConfig+0x92>
 8001d80:	f7ff f892 	bl	8000ea8 <HAL_GetTick>
 8001d84:	eba0 0008 	sub.w	r0, r0, r8
 8001d88:	2802      	cmp	r0, #2
 8001d8a:	f67f af04 	bls.w	8001b96 <HAL_RCCEx_PeriphCLKConfig+0xbe>
 8001d8e:	2003      	movs	r0, #3
 8001d90:	b003      	add	sp, #12
 8001d92:	e8bd 83f0 	ldmia.w	sp!, {r4, r5, r6, r7, r8, r9, pc}
 8001d96:	bf00      	nop
 8001d98:	40023800 	.word	0x40023800
 8001d9c:	40007000 	.word	0x40007000
 8001da0:	42471000 	.word	0x42471000
 8001da4:	42470000 	.word	0x42470000
 8001da8:	f402 7240 	and.w	r2, r2, #768	; 0x300
 8001dac:	429a      	cmp	r2, r3
 8001dae:	f43f aefd 	beq.w	8001bac <HAL_RCCEx_PeriphCLKConfig+0xd4>
 8001db2:	6f3b      	ldr	r3, [r7, #112]	; 0x70
 8001db4:	4a4b      	ldr	r2, [pc, #300]	; (8001ee4 <HAL_RCCEx_PeriphCLKConfig+0x40c>)
 8001db6:	2101      	movs	r1, #1
 8001db8:	f8c2 1e40 	str.w	r1, [r2, #3648]	; 0xe40
 8001dbc:	f423 7340 	bic.w	r3, r3, #768	; 0x300
 8001dc0:	2100      	movs	r1, #0
 8001dc2:	f8c2 1e40 	str.w	r1, [r2, #3648]	; 0xe40
 8001dc6:	673b      	str	r3, [r7, #112]	; 0x70
 8001dc8:	6f3b      	ldr	r3, [r7, #112]	; 0x70
 8001dca:	07da      	lsls	r2, r3, #31
 8001dcc:	f57f aeee 	bpl.w	8001bac <HAL_RCCEx_PeriphCLKConfig+0xd4>
 8001dd0:	f7ff f86a 	bl	8000ea8 <HAL_GetTick>
 8001dd4:	f241 3988 	movw	r9, #5000	; 0x1388
 8001dd8:	4680      	mov	r8, r0
 8001dda:	6f3b      	ldr	r3, [r7, #112]	; 0x70
 8001ddc:	079b      	lsls	r3, r3, #30
 8001dde:	f53f aee5 	bmi.w	8001bac <HAL_RCCEx_PeriphCLKConfig+0xd4>
 8001de2:	f7ff f861 	bl	8000ea8 <HAL_GetTick>
 8001de6:	eba0 0008 	sub.w	r0, r0, r8
 8001dea:	4548      	cmp	r0, r9
 8001dec:	d9f5      	bls.n	8001dda <HAL_RCCEx_PeriphCLKConfig+0x302>
 8001dee:	e7ce      	b.n	8001d8e <HAL_RCCEx_PeriphCLKConfig+0x2b6>
 8001df0:	6891      	ldr	r1, [r2, #8]
 8001df2:	f421 11f8 	bic.w	r1, r1, #2031616	; 0x1f0000
 8001df6:	e6e9      	b.n	8001bcc <HAL_RCCEx_PeriphCLKConfig+0xf4>
 8001df8:	483b      	ldr	r0, [pc, #236]	; (8001ee8 <HAL_RCCEx_PeriphCLKConfig+0x410>)
 8001dfa:	6d21      	ldr	r1, [r4, #80]	; 0x50
 8001dfc:	f8d0 2094 	ldr.w	r2, [r0, #148]	; 0x94
 8001e00:	f022 5200 	bic.w	r2, r2, #536870912	; 0x20000000
 8001e04:	430a      	orrs	r2, r1
 8001e06:	f1b1 5f00 	cmp.w	r1, #536870912	; 0x20000000
 8001e0a:	f8c0 2094 	str.w	r2, [r0, #148]	; 0x94
 8001e0e:	f47f af1f 	bne.w	8001c50 <HAL_RCCEx_PeriphCLKConfig+0x178>
 8001e12:	e720      	b.n	8001c56 <HAL_RCCEx_PeriphCLKConfig+0x17e>
 8001e14:	f5b3 6f00 	cmp.w	r3, #2048	; 0x800
 8001e18:	f43f af1d 	beq.w	8001c56 <HAL_RCCEx_PeriphCLKConfig+0x17e>
 8001e1c:	2d01      	cmp	r5, #1
 8001e1e:	d14c      	bne.n	8001eba <HAL_RCCEx_PeriphCLKConfig+0x3e2>
 8001e20:	4b30      	ldr	r3, [pc, #192]	; (8001ee4 <HAL_RCCEx_PeriphCLKConfig+0x40c>)
 8001e22:	4e31      	ldr	r6, [pc, #196]	; (8001ee8 <HAL_RCCEx_PeriphCLKConfig+0x410>)
 8001e24:	2200      	movs	r2, #0
 8001e26:	671a      	str	r2, [r3, #112]	; 0x70
 8001e28:	f7ff f83e 	bl	8000ea8 <HAL_GetTick>
 8001e2c:	4605      	mov	r5, r0
 8001e2e:	6833      	ldr	r3, [r6, #0]
 8001e30:	009f      	lsls	r7, r3, #2
 8001e32:	d44b      	bmi.n	8001ecc <HAL_RCCEx_PeriphCLKConfig+0x3f4>
 8001e34:	6821      	ldr	r1, [r4, #0]
 8001e36:	074d      	lsls	r5, r1, #29
 8001e38:	d501      	bpl.n	8001e3e <HAL_RCCEx_PeriphCLKConfig+0x366>
 8001e3a:	6b23      	ldr	r3, [r4, #48]	; 0x30
 8001e3c:	b11b      	cbz	r3, 8001e46 <HAL_RCCEx_PeriphCLKConfig+0x36e>
 8001e3e:	0708      	lsls	r0, r1, #28
 8001e40:	d51a      	bpl.n	8001e78 <HAL_RCCEx_PeriphCLKConfig+0x3a0>
 8001e42:	6b63      	ldr	r3, [r4, #52]	; 0x34
 8001e44:	b9c3      	cbnz	r3, 8001e78 <HAL_RCCEx_PeriphCLKConfig+0x3a0>
 8001e46:	4a28      	ldr	r2, [pc, #160]	; (8001ee8 <HAL_RCCEx_PeriphCLKConfig+0x410>)
 8001e48:	69a0      	ldr	r0, [r4, #24]
 8001e4a:	f8d2 3088 	ldr.w	r3, [r2, #136]	; 0x88
 8001e4e:	f403 3340 	and.w	r3, r3, #196608	; 0x30000
 8001e52:	4303      	orrs	r3, r0
 8001e54:	69e0      	ldr	r0, [r4, #28]
 8001e56:	ea43 1380 	orr.w	r3, r3, r0, lsl #6
 8001e5a:	6a60      	ldr	r0, [r4, #36]	; 0x24
 8001e5c:	ea43 6300 	orr.w	r3, r3, r0, lsl #24
 8001e60:	f8c2 3088 	str.w	r3, [r2, #136]	; 0x88
 8001e64:	f8d2 308c 	ldr.w	r3, [r2, #140]	; 0x8c
 8001e68:	6ae0      	ldr	r0, [r4, #44]	; 0x2c
 8001e6a:	f423 53f8 	bic.w	r3, r3, #7936	; 0x1f00
 8001e6e:	3801      	subs	r0, #1
 8001e70:	ea43 2300 	orr.w	r3, r3, r0, lsl #8
 8001e74:	f8c2 308c 	str.w	r3, [r2, #140]	; 0x8c
 8001e78:	05ca      	lsls	r2, r1, #23
 8001e7a:	d514      	bpl.n	8001ea6 <HAL_RCCEx_PeriphCLKConfig+0x3ce>
 8001e7c:	6d63      	ldr	r3, [r4, #84]	; 0x54
 8001e7e:	f1b3 6f00 	cmp.w	r3, #134217728	; 0x8000000
 8001e82:	d110      	bne.n	8001ea6 <HAL_RCCEx_PeriphCLKConfig+0x3ce>
 8001e84:	4918      	ldr	r1, [pc, #96]	; (8001ee8 <HAL_RCCEx_PeriphCLKConfig+0x410>)
 8001e86:	69a2      	ldr	r2, [r4, #24]
 8001e88:	f8d1 3088 	ldr.w	r3, [r1, #136]	; 0x88
 8001e8c:	f003 6370 	and.w	r3, r3, #251658240	; 0xf000000
 8001e90:	4313      	orrs	r3, r2
 8001e92:	69e2      	ldr	r2, [r4, #28]
 8001e94:	ea43 1382 	orr.w	r3, r3, r2, lsl #6
 8001e98:	6a22      	ldr	r2, [r4, #32]
 8001e9a:	0852      	lsrs	r2, r2, #1
 8001e9c:	3a01      	subs	r2, #1
 8001e9e:	ea43 4302 	orr.w	r3, r3, r2, lsl #16
 8001ea2:	f8c1 3088 	str.w	r3, [r1, #136]	; 0x88
 8001ea6:	4b0f      	ldr	r3, [pc, #60]	; (8001ee4 <HAL_RCCEx_PeriphCLKConfig+0x40c>)
 8001ea8:	4d0f      	ldr	r5, [pc, #60]	; (8001ee8 <HAL_RCCEx_PeriphCLKConfig+0x410>)
 8001eaa:	2201      	movs	r2, #1
 8001eac:	671a      	str	r2, [r3, #112]	; 0x70
 8001eae:	f7fe fffb 	bl	8000ea8 <HAL_GetTick>
 8001eb2:	4604      	mov	r4, r0
 8001eb4:	682b      	ldr	r3, [r5, #0]
 8001eb6:	009b      	lsls	r3, r3, #2
 8001eb8:	d50e      	bpl.n	8001ed8 <HAL_RCCEx_PeriphCLKConfig+0x400>
 8001eba:	2000      	movs	r0, #0
 8001ebc:	e768      	b.n	8001d90 <HAL_RCCEx_PeriphCLKConfig+0x2b8>
 8001ebe:	f7fe fff3 	bl	8000ea8 <HAL_GetTick>
 8001ec2:	1b80      	subs	r0, r0, r6
 8001ec4:	2802      	cmp	r0, #2
 8001ec6:	f67f aecd 	bls.w	8001c64 <HAL_RCCEx_PeriphCLKConfig+0x18c>
 8001eca:	e760      	b.n	8001d8e <HAL_RCCEx_PeriphCLKConfig+0x2b6>
 8001ecc:	f7fe ffec 	bl	8000ea8 <HAL_GetTick>
 8001ed0:	1b40      	subs	r0, r0, r5
 8001ed2:	2802      	cmp	r0, #2
 8001ed4:	d9ab      	bls.n	8001e2e <HAL_RCCEx_PeriphCLKConfig+0x356>
 8001ed6:	e75a      	b.n	8001d8e <HAL_RCCEx_PeriphCLKConfig+0x2b6>
 8001ed8:	f7fe ffe6 	bl	8000ea8 <HAL_GetTick>
 8001edc:	1b00      	subs	r0, r0, r4
 8001ede:	2802      	cmp	r0, #2
 8001ee0:	d9e8      	bls.n	8001eb4 <HAL_RCCEx_PeriphCLKConfig+0x3dc>
 8001ee2:	e754      	b.n	8001d8e <HAL_RCCEx_PeriphCLKConfig+0x2b6>
 8001ee4:	42470000 	.word	0x42470000
 8001ee8:	40023800 	.word	0x40023800

08001eec <HAL_RCC_GetSysClockFreq>:
 8001eec:	4920      	ldr	r1, [pc, #128]	; (8001f70 <HAL_RCC_GetSysClockFreq+0x84>)
 8001eee:	b508      	push	{r3, lr}
 8001ef0:	688b      	ldr	r3, [r1, #8]
 8001ef2:	f003 030c 	and.w	r3, r3, #12
 8001ef6:	2b08      	cmp	r3, #8
 8001ef8:	d007      	beq.n	8001f0a <HAL_RCC_GetSysClockFreq+0x1e>
 8001efa:	2b0c      	cmp	r3, #12
 8001efc:	d020      	beq.n	8001f40 <HAL_RCC_GetSysClockFreq+0x54>
 8001efe:	481d      	ldr	r0, [pc, #116]	; (8001f74 <HAL_RCC_GetSysClockFreq+0x88>)
 8001f00:	4a1d      	ldr	r2, [pc, #116]	; (8001f78 <HAL_RCC_GetSysClockFreq+0x8c>)
 8001f02:	2b04      	cmp	r3, #4
 8001f04:	bf08      	it	eq
 8001f06:	4610      	moveq	r0, r2
 8001f08:	bd08      	pop	{r3, pc}
 8001f0a:	684a      	ldr	r2, [r1, #4]
 8001f0c:	684b      	ldr	r3, [r1, #4]
 8001f0e:	6849      	ldr	r1, [r1, #4]
 8001f10:	f413 0380 	ands.w	r3, r3, #4194304	; 0x400000
 8001f14:	bf14      	ite	ne
 8001f16:	4818      	ldrne	r0, [pc, #96]	; (8001f78 <HAL_RCC_GetSysClockFreq+0x8c>)
 8001f18:	4816      	ldreq	r0, [pc, #88]	; (8001f74 <HAL_RCC_GetSysClockFreq+0x88>)
 8001f1a:	f3c1 1188 	ubfx	r1, r1, #6, #9
 8001f1e:	bf18      	it	ne
 8001f20:	2300      	movne	r3, #0
 8001f22:	f002 023f 	and.w	r2, r2, #63	; 0x3f
 8001f26:	fba1 0100 	umull	r0, r1, r1, r0
 8001f2a:	f7fe f96b 	bl	8000204 <__aeabi_uldivmod>
 8001f2e:	4b10      	ldr	r3, [pc, #64]	; (8001f70 <HAL_RCC_GetSysClockFreq+0x84>)
 8001f30:	685b      	ldr	r3, [r3, #4]
 8001f32:	f3c3 4301 	ubfx	r3, r3, #16, #2
 8001f36:	3301      	adds	r3, #1
 8001f38:	005b      	lsls	r3, r3, #1
 8001f3a:	fbb0 f0f3 	udiv	r0, r0, r3
 8001f3e:	e7e3      	b.n	8001f08 <HAL_RCC_GetSysClockFreq+0x1c>
 8001f40:	684a      	ldr	r2, [r1, #4]
 8001f42:	684b      	ldr	r3, [r1, #4]
 8001f44:	6849      	ldr	r1, [r1, #4]
 8001f46:	f413 0380 	ands.w	r3, r3, #4194304	; 0x400000
 8001f4a:	bf14      	ite	ne
 8001f4c:	480a      	ldrne	r0, [pc, #40]	; (8001f78 <HAL_RCC_GetSysClockFreq+0x8c>)
 8001f4e:	4809      	ldreq	r0, [pc, #36]	; (8001f74 <HAL_RCC_GetSysClockFreq+0x88>)
 8001f50:	f3c1 1188 	ubfx	r1, r1, #6, #9
 8001f54:	bf18      	it	ne
 8001f56:	2300      	movne	r3, #0
 8001f58:	f002 023f 	and.w	r2, r2, #63	; 0x3f
 8001f5c:	fba1 0100 	umull	r0, r1, r1, r0
 8001f60:	f7fe f950 	bl	8000204 <__aeabi_uldivmod>
 8001f64:	4b02      	ldr	r3, [pc, #8]	; (8001f70 <HAL_RCC_GetSysClockFreq+0x84>)
 8001f66:	685b      	ldr	r3, [r3, #4]
 8001f68:	f3c3 7302 	ubfx	r3, r3, #28, #3
 8001f6c:	e7e5      	b.n	8001f3a <HAL_RCC_GetSysClockFreq+0x4e>
 8001f6e:	bf00      	nop
 8001f70:	40023800 	.word	0x40023800
 8001f74:	00f42400 	.word	0x00f42400
 8001f78:	017d7840 	.word	0x017d7840

08001f7c <HAL_RCC_OscConfig>:
 8001f7c:	e92d 41f3 	stmdb	sp!, {r0, r1, r4, r5, r6, r7, r8, lr}
 8001f80:	4604      	mov	r4, r0
 8001f82:	2800      	cmp	r0, #0
 8001f84:	d031      	beq.n	8001fea <HAL_RCC_OscConfig+0x6e>
 8001f86:	6803      	ldr	r3, [r0, #0]
 8001f88:	07df      	lsls	r7, r3, #31
 8001f8a:	d410      	bmi.n	8001fae <HAL_RCC_OscConfig+0x32>
 8001f8c:	6823      	ldr	r3, [r4, #0]
 8001f8e:	079e      	lsls	r6, r3, #30
 8001f90:	d467      	bmi.n	8002062 <HAL_RCC_OscConfig+0xe6>
 8001f92:	6823      	ldr	r3, [r4, #0]
 8001f94:	071a      	lsls	r2, r3, #28
 8001f96:	f100 80b2 	bmi.w	80020fe <HAL_RCC_OscConfig+0x182>
 8001f9a:	6823      	ldr	r3, [r4, #0]
 8001f9c:	075b      	lsls	r3, r3, #29
 8001f9e:	f100 80d2 	bmi.w	8002146 <HAL_RCC_OscConfig+0x1ca>
 8001fa2:	69a0      	ldr	r0, [r4, #24]
 8001fa4:	2800      	cmp	r0, #0
 8001fa6:	f040 8139 	bne.w	800221c <HAL_RCC_OscConfig+0x2a0>
 8001faa:	2000      	movs	r0, #0
 8001fac:	e034      	b.n	8002018 <HAL_RCC_OscConfig+0x9c>
 8001fae:	4b98      	ldr	r3, [pc, #608]	; (8002210 <HAL_RCC_OscConfig+0x294>)
 8001fb0:	689a      	ldr	r2, [r3, #8]
 8001fb2:	f002 020c 	and.w	r2, r2, #12
 8001fb6:	2a04      	cmp	r2, #4
 8001fb8:	d010      	beq.n	8001fdc <HAL_RCC_OscConfig+0x60>
 8001fba:	689a      	ldr	r2, [r3, #8]
 8001fbc:	f002 020c 	and.w	r2, r2, #12
 8001fc0:	2a08      	cmp	r2, #8
 8001fc2:	d102      	bne.n	8001fca <HAL_RCC_OscConfig+0x4e>
 8001fc4:	685b      	ldr	r3, [r3, #4]
 8001fc6:	025d      	lsls	r5, r3, #9
 8001fc8:	d408      	bmi.n	8001fdc <HAL_RCC_OscConfig+0x60>
 8001fca:	4b91      	ldr	r3, [pc, #580]	; (8002210 <HAL_RCC_OscConfig+0x294>)
 8001fcc:	689a      	ldr	r2, [r3, #8]
 8001fce:	f002 020c 	and.w	r2, r2, #12
 8001fd2:	2a0c      	cmp	r2, #12
 8001fd4:	d10b      	bne.n	8001fee <HAL_RCC_OscConfig+0x72>
 8001fd6:	685a      	ldr	r2, [r3, #4]
 8001fd8:	0250      	lsls	r0, r2, #9
 8001fda:	d508      	bpl.n	8001fee <HAL_RCC_OscConfig+0x72>
 8001fdc:	4b8c      	ldr	r3, [pc, #560]	; (8002210 <HAL_RCC_OscConfig+0x294>)
 8001fde:	681b      	ldr	r3, [r3, #0]
 8001fe0:	0399      	lsls	r1, r3, #14
 8001fe2:	d5d3      	bpl.n	8001f8c <HAL_RCC_OscConfig+0x10>
 8001fe4:	6863      	ldr	r3, [r4, #4]
 8001fe6:	2b00      	cmp	r3, #0
 8001fe8:	d1d0      	bne.n	8001f8c <HAL_RCC_OscConfig+0x10>
 8001fea:	2001      	movs	r0, #1
 8001fec:	e014      	b.n	8002018 <HAL_RCC_OscConfig+0x9c>
 8001fee:	6862      	ldr	r2, [r4, #4]
 8001ff0:	f5b2 3f80 	cmp.w	r2, #65536	; 0x10000
 8001ff4:	d113      	bne.n	800201e <HAL_RCC_OscConfig+0xa2>
 8001ff6:	681a      	ldr	r2, [r3, #0]
 8001ff8:	f442 3280 	orr.w	r2, r2, #65536	; 0x10000
 8001ffc:	601a      	str	r2, [r3, #0]
 8001ffe:	f7fe ff53 	bl	8000ea8 <HAL_GetTick>
 8002002:	4e83      	ldr	r6, [pc, #524]	; (8002210 <HAL_RCC_OscConfig+0x294>)
 8002004:	4605      	mov	r5, r0
 8002006:	6833      	ldr	r3, [r6, #0]
 8002008:	039a      	lsls	r2, r3, #14
 800200a:	d4bf      	bmi.n	8001f8c <HAL_RCC_OscConfig+0x10>
 800200c:	f7fe ff4c 	bl	8000ea8 <HAL_GetTick>
 8002010:	1b40      	subs	r0, r0, r5
 8002012:	2864      	cmp	r0, #100	; 0x64
 8002014:	d9f7      	bls.n	8002006 <HAL_RCC_OscConfig+0x8a>
 8002016:	2003      	movs	r0, #3
 8002018:	b002      	add	sp, #8
 800201a:	e8bd 81f0 	ldmia.w	sp!, {r4, r5, r6, r7, r8, pc}
 800201e:	4d7c      	ldr	r5, [pc, #496]	; (8002210 <HAL_RCC_OscConfig+0x294>)
 8002020:	f5b2 2fa0 	cmp.w	r2, #327680	; 0x50000
 8002024:	682b      	ldr	r3, [r5, #0]
 8002026:	d107      	bne.n	8002038 <HAL_RCC_OscConfig+0xbc>
 8002028:	f443 2380 	orr.w	r3, r3, #262144	; 0x40000
 800202c:	602b      	str	r3, [r5, #0]
 800202e:	682b      	ldr	r3, [r5, #0]
 8002030:	f443 3380 	orr.w	r3, r3, #65536	; 0x10000
 8002034:	602b      	str	r3, [r5, #0]
 8002036:	e7e2      	b.n	8001ffe <HAL_RCC_OscConfig+0x82>
 8002038:	f423 3380 	bic.w	r3, r3, #65536	; 0x10000
 800203c:	602b      	str	r3, [r5, #0]
 800203e:	682b      	ldr	r3, [r5, #0]
 8002040:	f423 2380 	bic.w	r3, r3, #262144	; 0x40000
 8002044:	602b      	str	r3, [r5, #0]
 8002046:	2a00      	cmp	r2, #0
 8002048:	d1d9      	bne.n	8001ffe <HAL_RCC_OscConfig+0x82>
 800204a:	f7fe ff2d 	bl	8000ea8 <HAL_GetTick>
 800204e:	4606      	mov	r6, r0
 8002050:	682b      	ldr	r3, [r5, #0]
 8002052:	039b      	lsls	r3, r3, #14
 8002054:	d59a      	bpl.n	8001f8c <HAL_RCC_OscConfig+0x10>
 8002056:	f7fe ff27 	bl	8000ea8 <HAL_GetTick>
 800205a:	1b80      	subs	r0, r0, r6
 800205c:	2864      	cmp	r0, #100	; 0x64
 800205e:	d9f7      	bls.n	8002050 <HAL_RCC_OscConfig+0xd4>
 8002060:	e7d9      	b.n	8002016 <HAL_RCC_OscConfig+0x9a>
 8002062:	4b6b      	ldr	r3, [pc, #428]	; (8002210 <HAL_RCC_OscConfig+0x294>)
 8002064:	689a      	ldr	r2, [r3, #8]
 8002066:	f012 0f0c 	tst.w	r2, #12
 800206a:	d010      	beq.n	800208e <HAL_RCC_OscConfig+0x112>
 800206c:	689a      	ldr	r2, [r3, #8]
 800206e:	f002 020c 	and.w	r2, r2, #12
 8002072:	2a08      	cmp	r2, #8
 8002074:	d102      	bne.n	800207c <HAL_RCC_OscConfig+0x100>
 8002076:	685b      	ldr	r3, [r3, #4]
 8002078:	025f      	lsls	r7, r3, #9
 800207a:	d508      	bpl.n	800208e <HAL_RCC_OscConfig+0x112>
 800207c:	4a64      	ldr	r2, [pc, #400]	; (8002210 <HAL_RCC_OscConfig+0x294>)
 800207e:	6893      	ldr	r3, [r2, #8]
 8002080:	f003 030c 	and.w	r3, r3, #12
 8002084:	2b0c      	cmp	r3, #12
 8002086:	d111      	bne.n	80020ac <HAL_RCC_OscConfig+0x130>
 8002088:	6853      	ldr	r3, [r2, #4]
 800208a:	025e      	lsls	r6, r3, #9
 800208c:	d40e      	bmi.n	80020ac <HAL_RCC_OscConfig+0x130>
 800208e:	4a60      	ldr	r2, [pc, #384]	; (8002210 <HAL_RCC_OscConfig+0x294>)
 8002090:	6813      	ldr	r3, [r2, #0]
 8002092:	079d      	lsls	r5, r3, #30
 8002094:	d502      	bpl.n	800209c <HAL_RCC_OscConfig+0x120>
 8002096:	68e3      	ldr	r3, [r4, #12]
 8002098:	2b01      	cmp	r3, #1
 800209a:	d1a6      	bne.n	8001fea <HAL_RCC_OscConfig+0x6e>
 800209c:	6813      	ldr	r3, [r2, #0]
 800209e:	6921      	ldr	r1, [r4, #16]
 80020a0:	f023 03f8 	bic.w	r3, r3, #248	; 0xf8
 80020a4:	ea43 03c1 	orr.w	r3, r3, r1, lsl #3
 80020a8:	6013      	str	r3, [r2, #0]
 80020aa:	e772      	b.n	8001f92 <HAL_RCC_OscConfig+0x16>
 80020ac:	68e2      	ldr	r2, [r4, #12]
 80020ae:	4b59      	ldr	r3, [pc, #356]	; (8002214 <HAL_RCC_OscConfig+0x298>)
 80020b0:	b1b2      	cbz	r2, 80020e0 <HAL_RCC_OscConfig+0x164>
 80020b2:	2201      	movs	r2, #1
 80020b4:	601a      	str	r2, [r3, #0]
 80020b6:	f7fe fef7 	bl	8000ea8 <HAL_GetTick>
 80020ba:	4d55      	ldr	r5, [pc, #340]	; (8002210 <HAL_RCC_OscConfig+0x294>)
 80020bc:	4606      	mov	r6, r0
 80020be:	682b      	ldr	r3, [r5, #0]
 80020c0:	0798      	lsls	r0, r3, #30
 80020c2:	d507      	bpl.n	80020d4 <HAL_RCC_OscConfig+0x158>
 80020c4:	682b      	ldr	r3, [r5, #0]
 80020c6:	6922      	ldr	r2, [r4, #16]
 80020c8:	f023 03f8 	bic.w	r3, r3, #248	; 0xf8
 80020cc:	ea43 03c2 	orr.w	r3, r3, r2, lsl #3
 80020d0:	602b      	str	r3, [r5, #0]
 80020d2:	e75e      	b.n	8001f92 <HAL_RCC_OscConfig+0x16>
 80020d4:	f7fe fee8 	bl	8000ea8 <HAL_GetTick>
 80020d8:	1b80      	subs	r0, r0, r6
 80020da:	2802      	cmp	r0, #2
 80020dc:	d9ef      	bls.n	80020be <HAL_RCC_OscConfig+0x142>
 80020de:	e79a      	b.n	8002016 <HAL_RCC_OscConfig+0x9a>
 80020e0:	601a      	str	r2, [r3, #0]
 80020e2:	f7fe fee1 	bl	8000ea8 <HAL_GetTick>
 80020e6:	4e4a      	ldr	r6, [pc, #296]	; (8002210 <HAL_RCC_OscConfig+0x294>)
 80020e8:	4605      	mov	r5, r0
 80020ea:	6833      	ldr	r3, [r6, #0]
 80020ec:	0799      	lsls	r1, r3, #30
 80020ee:	f57f af50 	bpl.w	8001f92 <HAL_RCC_OscConfig+0x16>
 80020f2:	f7fe fed9 	bl	8000ea8 <HAL_GetTick>
 80020f6:	1b40      	subs	r0, r0, r5
 80020f8:	2802      	cmp	r0, #2
 80020fa:	d9f6      	bls.n	80020ea <HAL_RCC_OscConfig+0x16e>
 80020fc:	e78b      	b.n	8002016 <HAL_RCC_OscConfig+0x9a>
 80020fe:	6962      	ldr	r2, [r4, #20]
 8002100:	4b44      	ldr	r3, [pc, #272]	; (8002214 <HAL_RCC_OscConfig+0x298>)
 8002102:	b182      	cbz	r2, 8002126 <HAL_RCC_OscConfig+0x1aa>
 8002104:	2201      	movs	r2, #1
 8002106:	f8c3 2e80 	str.w	r2, [r3, #3712]	; 0xe80
 800210a:	f7fe fecd 	bl	8000ea8 <HAL_GetTick>
 800210e:	4e40      	ldr	r6, [pc, #256]	; (8002210 <HAL_RCC_OscConfig+0x294>)
 8002110:	4605      	mov	r5, r0
 8002112:	6f73      	ldr	r3, [r6, #116]	; 0x74
 8002114:	079f      	lsls	r7, r3, #30
 8002116:	f53f af40 	bmi.w	8001f9a <HAL_RCC_OscConfig+0x1e>
 800211a:	f7fe fec5 	bl	8000ea8 <HAL_GetTick>
 800211e:	1b40      	subs	r0, r0, r5
 8002120:	2802      	cmp	r0, #2
 8002122:	d9f6      	bls.n	8002112 <HAL_RCC_OscConfig+0x196>
 8002124:	e777      	b.n	8002016 <HAL_RCC_OscConfig+0x9a>
 8002126:	f8c3 2e80 	str.w	r2, [r3, #3712]	; 0xe80
 800212a:	f7fe febd 	bl	8000ea8 <HAL_GetTick>
 800212e:	4e38      	ldr	r6, [pc, #224]	; (8002210 <HAL_RCC_OscConfig+0x294>)
 8002130:	4605      	mov	r5, r0
 8002132:	6f73      	ldr	r3, [r6, #116]	; 0x74
 8002134:	0798      	lsls	r0, r3, #30
 8002136:	f57f af30 	bpl.w	8001f9a <HAL_RCC_OscConfig+0x1e>
 800213a:	f7fe feb5 	bl	8000ea8 <HAL_GetTick>
 800213e:	1b40      	subs	r0, r0, r5
 8002140:	2802      	cmp	r0, #2
 8002142:	d9f6      	bls.n	8002132 <HAL_RCC_OscConfig+0x1b6>
 8002144:	e767      	b.n	8002016 <HAL_RCC_OscConfig+0x9a>
 8002146:	4b32      	ldr	r3, [pc, #200]	; (8002210 <HAL_RCC_OscConfig+0x294>)
 8002148:	6c1a      	ldr	r2, [r3, #64]	; 0x40
 800214a:	f012 5280 	ands.w	r2, r2, #268435456	; 0x10000000
 800214e:	d128      	bne.n	80021a2 <HAL_RCC_OscConfig+0x226>
 8002150:	9201      	str	r2, [sp, #4]
 8002152:	6c1a      	ldr	r2, [r3, #64]	; 0x40
 8002154:	f042 5280 	orr.w	r2, r2, #268435456	; 0x10000000
 8002158:	641a      	str	r2, [r3, #64]	; 0x40
 800215a:	6c1b      	ldr	r3, [r3, #64]	; 0x40
 800215c:	f003 5380 	and.w	r3, r3, #268435456	; 0x10000000
 8002160:	9301      	str	r3, [sp, #4]
 8002162:	9b01      	ldr	r3, [sp, #4]
 8002164:	2701      	movs	r7, #1
 8002166:	4d2c      	ldr	r5, [pc, #176]	; (8002218 <HAL_RCC_OscConfig+0x29c>)
 8002168:	682b      	ldr	r3, [r5, #0]
 800216a:	05d9      	lsls	r1, r3, #23
 800216c:	d51b      	bpl.n	80021a6 <HAL_RCC_OscConfig+0x22a>
 800216e:	68a3      	ldr	r3, [r4, #8]
 8002170:	4d27      	ldr	r5, [pc, #156]	; (8002210 <HAL_RCC_OscConfig+0x294>)
 8002172:	2b01      	cmp	r3, #1
 8002174:	d127      	bne.n	80021c6 <HAL_RCC_OscConfig+0x24a>
 8002176:	6f2b      	ldr	r3, [r5, #112]	; 0x70
 8002178:	f043 0301 	orr.w	r3, r3, #1
 800217c:	672b      	str	r3, [r5, #112]	; 0x70
 800217e:	f7fe fe93 	bl	8000ea8 <HAL_GetTick>
 8002182:	4e23      	ldr	r6, [pc, #140]	; (8002210 <HAL_RCC_OscConfig+0x294>)
 8002184:	4605      	mov	r5, r0
 8002186:	f241 3888 	movw	r8, #5000	; 0x1388
 800218a:	6f33      	ldr	r3, [r6, #112]	; 0x70
 800218c:	079b      	lsls	r3, r3, #30
 800218e:	d539      	bpl.n	8002204 <HAL_RCC_OscConfig+0x288>
 8002190:	2f00      	cmp	r7, #0
 8002192:	f43f af06 	beq.w	8001fa2 <HAL_RCC_OscConfig+0x26>
 8002196:	4a1e      	ldr	r2, [pc, #120]	; (8002210 <HAL_RCC_OscConfig+0x294>)
 8002198:	6c13      	ldr	r3, [r2, #64]	; 0x40
 800219a:	f023 5380 	bic.w	r3, r3, #268435456	; 0x10000000
 800219e:	6413      	str	r3, [r2, #64]	; 0x40
 80021a0:	e6ff      	b.n	8001fa2 <HAL_RCC_OscConfig+0x26>
 80021a2:	2700      	movs	r7, #0
 80021a4:	e7df      	b.n	8002166 <HAL_RCC_OscConfig+0x1ea>
 80021a6:	682b      	ldr	r3, [r5, #0]
 80021a8:	f443 7380 	orr.w	r3, r3, #256	; 0x100
 80021ac:	602b      	str	r3, [r5, #0]
 80021ae:	f7fe fe7b 	bl	8000ea8 <HAL_GetTick>
 80021b2:	4606      	mov	r6, r0
 80021b4:	682b      	ldr	r3, [r5, #0]
 80021b6:	05da      	lsls	r2, r3, #23
 80021b8:	d4d9      	bmi.n	800216e <HAL_RCC_OscConfig+0x1f2>
 80021ba:	f7fe fe75 	bl	8000ea8 <HAL_GetTick>
 80021be:	1b80      	subs	r0, r0, r6
 80021c0:	2802      	cmp	r0, #2
 80021c2:	d9f7      	bls.n	80021b4 <HAL_RCC_OscConfig+0x238>
 80021c4:	e727      	b.n	8002016 <HAL_RCC_OscConfig+0x9a>
 80021c6:	2b05      	cmp	r3, #5
 80021c8:	d104      	bne.n	80021d4 <HAL_RCC_OscConfig+0x258>
 80021ca:	6f2b      	ldr	r3, [r5, #112]	; 0x70
 80021cc:	f043 0304 	orr.w	r3, r3, #4
 80021d0:	672b      	str	r3, [r5, #112]	; 0x70
 80021d2:	e7d0      	b.n	8002176 <HAL_RCC_OscConfig+0x1fa>
 80021d4:	6f2a      	ldr	r2, [r5, #112]	; 0x70
 80021d6:	f022 0201 	bic.w	r2, r2, #1
 80021da:	672a      	str	r2, [r5, #112]	; 0x70
 80021dc:	6f2a      	ldr	r2, [r5, #112]	; 0x70
 80021de:	f022 0204 	bic.w	r2, r2, #4
 80021e2:	672a      	str	r2, [r5, #112]	; 0x70
 80021e4:	2b00      	cmp	r3, #0
 80021e6:	d1ca      	bne.n	800217e <HAL_RCC_OscConfig+0x202>
 80021e8:	f7fe fe5e 	bl	8000ea8 <HAL_GetTick>
 80021ec:	f241 3888 	movw	r8, #5000	; 0x1388
 80021f0:	4606      	mov	r6, r0
 80021f2:	6f2b      	ldr	r3, [r5, #112]	; 0x70
 80021f4:	0798      	lsls	r0, r3, #30
 80021f6:	d5cb      	bpl.n	8002190 <HAL_RCC_OscConfig+0x214>
 80021f8:	f7fe fe56 	bl	8000ea8 <HAL_GetTick>
 80021fc:	1b80      	subs	r0, r0, r6
 80021fe:	4540      	cmp	r0, r8
 8002200:	d9f7      	bls.n	80021f2 <HAL_RCC_OscConfig+0x276>
 8002202:	e708      	b.n	8002016 <HAL_RCC_OscConfig+0x9a>
 8002204:	f7fe fe50 	bl	8000ea8 <HAL_GetTick>
 8002208:	1b40      	subs	r0, r0, r5
 800220a:	4540      	cmp	r0, r8
 800220c:	d9bd      	bls.n	800218a <HAL_RCC_OscConfig+0x20e>
 800220e:	e702      	b.n	8002016 <HAL_RCC_OscConfig+0x9a>
 8002210:	40023800 	.word	0x40023800
 8002214:	42470000 	.word	0x42470000
 8002218:	40007000 	.word	0x40007000
 800221c:	4d3b      	ldr	r5, [pc, #236]	; (800230c <HAL_RCC_OscConfig+0x390>)
 800221e:	68ab      	ldr	r3, [r5, #8]
 8002220:	f003 030c 	and.w	r3, r3, #12
 8002224:	2b08      	cmp	r3, #8
 8002226:	d040      	beq.n	80022aa <HAL_RCC_OscConfig+0x32e>
 8002228:	4b39      	ldr	r3, [pc, #228]	; (8002310 <HAL_RCC_OscConfig+0x394>)
 800222a:	2200      	movs	r2, #0
 800222c:	2802      	cmp	r0, #2
 800222e:	661a      	str	r2, [r3, #96]	; 0x60
 8002230:	d12e      	bne.n	8002290 <HAL_RCC_OscConfig+0x314>
 8002232:	f7fe fe39 	bl	8000ea8 <HAL_GetTick>
 8002236:	4606      	mov	r6, r0
 8002238:	682b      	ldr	r3, [r5, #0]
 800223a:	0199      	lsls	r1, r3, #6
 800223c:	d422      	bmi.n	8002284 <HAL_RCC_OscConfig+0x308>
 800223e:	e9d4 3207 	ldrd	r3, r2, [r4, #28]
 8002242:	4313      	orrs	r3, r2
 8002244:	6a62      	ldr	r2, [r4, #36]	; 0x24
 8002246:	ea43 1382 	orr.w	r3, r3, r2, lsl #6
 800224a:	6ae2      	ldr	r2, [r4, #44]	; 0x2c
 800224c:	ea43 6302 	orr.w	r3, r3, r2, lsl #24
 8002250:	6b22      	ldr	r2, [r4, #48]	; 0x30
 8002252:	ea43 7302 	orr.w	r3, r3, r2, lsl #28
 8002256:	6aa2      	ldr	r2, [r4, #40]	; 0x28
 8002258:	0852      	lsrs	r2, r2, #1
 800225a:	3a01      	subs	r2, #1
 800225c:	ea43 4302 	orr.w	r3, r3, r2, lsl #16
 8002260:	606b      	str	r3, [r5, #4]
 8002262:	4b2b      	ldr	r3, [pc, #172]	; (8002310 <HAL_RCC_OscConfig+0x394>)
 8002264:	4d29      	ldr	r5, [pc, #164]	; (800230c <HAL_RCC_OscConfig+0x390>)
 8002266:	2201      	movs	r2, #1
 8002268:	661a      	str	r2, [r3, #96]	; 0x60
 800226a:	f7fe fe1d 	bl	8000ea8 <HAL_GetTick>
 800226e:	4604      	mov	r4, r0
 8002270:	682b      	ldr	r3, [r5, #0]
 8002272:	019a      	lsls	r2, r3, #6
 8002274:	f53f ae99 	bmi.w	8001faa <HAL_RCC_OscConfig+0x2e>
 8002278:	f7fe fe16 	bl	8000ea8 <HAL_GetTick>
 800227c:	1b00      	subs	r0, r0, r4
 800227e:	2802      	cmp	r0, #2
 8002280:	d9f6      	bls.n	8002270 <HAL_RCC_OscConfig+0x2f4>
 8002282:	e6c8      	b.n	8002016 <HAL_RCC_OscConfig+0x9a>
 8002284:	f7fe fe10 	bl	8000ea8 <HAL_GetTick>
 8002288:	1b80      	subs	r0, r0, r6
 800228a:	2802      	cmp	r0, #2
 800228c:	d9d4      	bls.n	8002238 <HAL_RCC_OscConfig+0x2bc>
 800228e:	e6c2      	b.n	8002016 <HAL_RCC_OscConfig+0x9a>
 8002290:	f7fe fe0a 	bl	8000ea8 <HAL_GetTick>
 8002294:	4604      	mov	r4, r0
 8002296:	682b      	ldr	r3, [r5, #0]
 8002298:	019b      	lsls	r3, r3, #6
 800229a:	f57f ae86 	bpl.w	8001faa <HAL_RCC_OscConfig+0x2e>
 800229e:	f7fe fe03 	bl	8000ea8 <HAL_GetTick>
 80022a2:	1b00      	subs	r0, r0, r4
 80022a4:	2802      	cmp	r0, #2
 80022a6:	d9f6      	bls.n	8002296 <HAL_RCC_OscConfig+0x31a>
 80022a8:	e6b5      	b.n	8002016 <HAL_RCC_OscConfig+0x9a>
 80022aa:	2801      	cmp	r0, #1
 80022ac:	f43f aeb4 	beq.w	8002018 <HAL_RCC_OscConfig+0x9c>
 80022b0:	686b      	ldr	r3, [r5, #4]
 80022b2:	69e2      	ldr	r2, [r4, #28]
 80022b4:	f403 0180 	and.w	r1, r3, #4194304	; 0x400000
 80022b8:	4291      	cmp	r1, r2
 80022ba:	f47f ae96 	bne.w	8001fea <HAL_RCC_OscConfig+0x6e>
 80022be:	6a21      	ldr	r1, [r4, #32]
 80022c0:	f003 023f 	and.w	r2, r3, #63	; 0x3f
 80022c4:	428a      	cmp	r2, r1
 80022c6:	f47f ae90 	bne.w	8001fea <HAL_RCC_OscConfig+0x6e>
 80022ca:	6a61      	ldr	r1, [r4, #36]	; 0x24
 80022cc:	f647 72c0 	movw	r2, #32704	; 0x7fc0
 80022d0:	401a      	ands	r2, r3
 80022d2:	ebb2 1f81 	cmp.w	r2, r1, lsl #6
 80022d6:	f47f ae88 	bne.w	8001fea <HAL_RCC_OscConfig+0x6e>
 80022da:	6aa2      	ldr	r2, [r4, #40]	; 0x28
 80022dc:	0852      	lsrs	r2, r2, #1
 80022de:	f403 3140 	and.w	r1, r3, #196608	; 0x30000
 80022e2:	3a01      	subs	r2, #1
 80022e4:	ebb1 4f02 	cmp.w	r1, r2, lsl #16
 80022e8:	f47f ae7f 	bne.w	8001fea <HAL_RCC_OscConfig+0x6e>
 80022ec:	6ae1      	ldr	r1, [r4, #44]	; 0x2c
 80022ee:	f003 6270 	and.w	r2, r3, #251658240	; 0xf000000
 80022f2:	ebb2 6f01 	cmp.w	r2, r1, lsl #24
 80022f6:	f47f ae78 	bne.w	8001fea <HAL_RCC_OscConfig+0x6e>
 80022fa:	6b22      	ldr	r2, [r4, #48]	; 0x30
 80022fc:	f003 43e0 	and.w	r3, r3, #1879048192	; 0x70000000
 8002300:	ebb3 7f02 	cmp.w	r3, r2, lsl #28
 8002304:	f43f ae51 	beq.w	8001faa <HAL_RCC_OscConfig+0x2e>
 8002308:	e66f      	b.n	8001fea <HAL_RCC_OscConfig+0x6e>
 800230a:	bf00      	nop
 800230c:	40023800 	.word	0x40023800
 8002310:	42470000 	.word	0x42470000

08002314 <HAL_SPI_Init>:
 8002314:	b510      	push	{r4, lr}
 8002316:	4604      	mov	r4, r0
 8002318:	2800      	cmp	r0, #0
 800231a:	d055      	beq.n	80023c8 <HAL_SPI_Init+0xb4>
 800231c:	6a43      	ldr	r3, [r0, #36]	; 0x24
 800231e:	2b00      	cmp	r3, #0
 8002320:	d14e      	bne.n	80023c0 <HAL_SPI_Init+0xac>
 8002322:	6842      	ldr	r2, [r0, #4]
 8002324:	f5b2 7f82 	cmp.w	r2, #260	; 0x104
 8002328:	d000      	beq.n	800232c <HAL_SPI_Init+0x18>
 800232a:	61c3      	str	r3, [r0, #28]
 800232c:	2300      	movs	r3, #0
 800232e:	62a3      	str	r3, [r4, #40]	; 0x28
 8002330:	f894 3051 	ldrb.w	r3, [r4, #81]	; 0x51
 8002334:	f003 02ff 	and.w	r2, r3, #255	; 0xff
 8002338:	b923      	cbnz	r3, 8002344 <HAL_SPI_Init+0x30>
 800233a:	f884 2050 	strb.w	r2, [r4, #80]	; 0x50
 800233e:	4620      	mov	r0, r4
 8002340:	f7fe fbd2 	bl	8000ae8 <HAL_SPI_MspInit>
 8002344:	6821      	ldr	r1, [r4, #0]
 8002346:	68a0      	ldr	r0, [r4, #8]
 8002348:	69a2      	ldr	r2, [r4, #24]
 800234a:	2302      	movs	r3, #2
 800234c:	f884 3051 	strb.w	r3, [r4, #81]	; 0x51
 8002350:	680b      	ldr	r3, [r1, #0]
 8002352:	f023 0340 	bic.w	r3, r3, #64	; 0x40
 8002356:	600b      	str	r3, [r1, #0]
 8002358:	6863      	ldr	r3, [r4, #4]
 800235a:	f400 4004 	and.w	r0, r0, #33792	; 0x8400
 800235e:	f403 7382 	and.w	r3, r3, #260	; 0x104
 8002362:	4303      	orrs	r3, r0
 8002364:	68e0      	ldr	r0, [r4, #12]
 8002366:	f400 6000 	and.w	r0, r0, #2048	; 0x800
 800236a:	4303      	orrs	r3, r0
 800236c:	6920      	ldr	r0, [r4, #16]
 800236e:	f000 0002 	and.w	r0, r0, #2
 8002372:	4303      	orrs	r3, r0
 8002374:	6960      	ldr	r0, [r4, #20]
 8002376:	f000 0001 	and.w	r0, r0, #1
 800237a:	4303      	orrs	r3, r0
 800237c:	f402 7000 	and.w	r0, r2, #512	; 0x200
 8002380:	4303      	orrs	r3, r0
 8002382:	69e0      	ldr	r0, [r4, #28]
 8002384:	f000 0038 	and.w	r0, r0, #56	; 0x38
 8002388:	4303      	orrs	r3, r0
 800238a:	6a20      	ldr	r0, [r4, #32]
 800238c:	f000 0080 	and.w	r0, r0, #128	; 0x80
 8002390:	4303      	orrs	r3, r0
 8002392:	6aa0      	ldr	r0, [r4, #40]	; 0x28
 8002394:	f400 5000 	and.w	r0, r0, #8192	; 0x2000
 8002398:	4303      	orrs	r3, r0
 800239a:	600b      	str	r3, [r1, #0]
 800239c:	6a63      	ldr	r3, [r4, #36]	; 0x24
 800239e:	0c12      	lsrs	r2, r2, #16
 80023a0:	f003 0310 	and.w	r3, r3, #16
 80023a4:	f002 0204 	and.w	r2, r2, #4
 80023a8:	431a      	orrs	r2, r3
 80023aa:	604a      	str	r2, [r1, #4]
 80023ac:	69cb      	ldr	r3, [r1, #28]
 80023ae:	f423 6300 	bic.w	r3, r3, #2048	; 0x800
 80023b2:	61cb      	str	r3, [r1, #28]
 80023b4:	2000      	movs	r0, #0
 80023b6:	2301      	movs	r3, #1
 80023b8:	6560      	str	r0, [r4, #84]	; 0x54
 80023ba:	f884 3051 	strb.w	r3, [r4, #81]	; 0x51
 80023be:	bd10      	pop	{r4, pc}
 80023c0:	2300      	movs	r3, #0
 80023c2:	e9c0 3304 	strd	r3, r3, [r0, #16]
 80023c6:	e7b1      	b.n	800232c <HAL_SPI_Init+0x18>
 80023c8:	2001      	movs	r0, #1
 80023ca:	e7f8      	b.n	80023be <HAL_SPI_Init+0xaa>

080023cc <HAL_SPI_ErrorCallback>:
 80023cc:	4770      	bx	lr
	...

080023d0 <HAL_SPI_IRQHandler>:
 80023d0:	6803      	ldr	r3, [r0, #0]
 80023d2:	b530      	push	{r4, r5, lr}
 80023d4:	6859      	ldr	r1, [r3, #4]
 80023d6:	689a      	ldr	r2, [r3, #8]
 80023d8:	f002 0541 	and.w	r5, r2, #65	; 0x41
 80023dc:	2d01      	cmp	r5, #1
 80023de:	b085      	sub	sp, #20
 80023e0:	4604      	mov	r4, r0
 80023e2:	d106      	bne.n	80023f2 <HAL_SPI_IRQHandler+0x22>
 80023e4:	064d      	lsls	r5, r1, #25
 80023e6:	d504      	bpl.n	80023f2 <HAL_SPI_IRQHandler+0x22>
 80023e8:	6c03      	ldr	r3, [r0, #64]	; 0x40
 80023ea:	b005      	add	sp, #20
 80023ec:	e8bd 4030 	ldmia.w	sp!, {r4, r5, lr}
 80023f0:	4718      	bx	r3
 80023f2:	0795      	lsls	r5, r2, #30
 80023f4:	d504      	bpl.n	8002400 <HAL_SPI_IRQHandler+0x30>
 80023f6:	0608      	lsls	r0, r1, #24
 80023f8:	d502      	bpl.n	8002400 <HAL_SPI_IRQHandler+0x30>
 80023fa:	6c63      	ldr	r3, [r4, #68]	; 0x44
 80023fc:	4620      	mov	r0, r4
 80023fe:	e7f4      	b.n	80023ea <HAL_SPI_IRQHandler+0x1a>
 8002400:	f412 7fb0 	tst.w	r2, #352	; 0x160
 8002404:	d059      	beq.n	80024ba <HAL_SPI_IRQHandler+0xea>
 8002406:	068d      	lsls	r5, r1, #26
 8002408:	d557      	bpl.n	80024ba <HAL_SPI_IRQHandler+0xea>
 800240a:	0650      	lsls	r0, r2, #25
 800240c:	d50f      	bpl.n	800242e <HAL_SPI_IRQHandler+0x5e>
 800240e:	f894 0051 	ldrb.w	r0, [r4, #81]	; 0x51
 8002412:	2803      	cmp	r0, #3
 8002414:	f04f 0500 	mov.w	r5, #0
 8002418:	d049      	beq.n	80024ae <HAL_SPI_IRQHandler+0xde>
 800241a:	6d60      	ldr	r0, [r4, #84]	; 0x54
 800241c:	f040 0004 	orr.w	r0, r0, #4
 8002420:	6560      	str	r0, [r4, #84]	; 0x54
 8002422:	9500      	str	r5, [sp, #0]
 8002424:	68d8      	ldr	r0, [r3, #12]
 8002426:	9000      	str	r0, [sp, #0]
 8002428:	6898      	ldr	r0, [r3, #8]
 800242a:	9000      	str	r0, [sp, #0]
 800242c:	9800      	ldr	r0, [sp, #0]
 800242e:	0695      	lsls	r5, r2, #26
 8002430:	d50c      	bpl.n	800244c <HAL_SPI_IRQHandler+0x7c>
 8002432:	6d60      	ldr	r0, [r4, #84]	; 0x54
 8002434:	f040 0001 	orr.w	r0, r0, #1
 8002438:	6560      	str	r0, [r4, #84]	; 0x54
 800243a:	2000      	movs	r0, #0
 800243c:	9002      	str	r0, [sp, #8]
 800243e:	6898      	ldr	r0, [r3, #8]
 8002440:	9002      	str	r0, [sp, #8]
 8002442:	6818      	ldr	r0, [r3, #0]
 8002444:	f020 0040 	bic.w	r0, r0, #64	; 0x40
 8002448:	6018      	str	r0, [r3, #0]
 800244a:	9802      	ldr	r0, [sp, #8]
 800244c:	05d0      	lsls	r0, r2, #23
 800244e:	d508      	bpl.n	8002462 <HAL_SPI_IRQHandler+0x92>
 8002450:	6d62      	ldr	r2, [r4, #84]	; 0x54
 8002452:	f042 0208 	orr.w	r2, r2, #8
 8002456:	6562      	str	r2, [r4, #84]	; 0x54
 8002458:	2200      	movs	r2, #0
 800245a:	9203      	str	r2, [sp, #12]
 800245c:	689a      	ldr	r2, [r3, #8]
 800245e:	9203      	str	r2, [sp, #12]
 8002460:	9a03      	ldr	r2, [sp, #12]
 8002462:	6d62      	ldr	r2, [r4, #84]	; 0x54
 8002464:	b34a      	cbz	r2, 80024ba <HAL_SPI_IRQHandler+0xea>
 8002466:	685a      	ldr	r2, [r3, #4]
 8002468:	f022 02e0 	bic.w	r2, r2, #224	; 0xe0
 800246c:	605a      	str	r2, [r3, #4]
 800246e:	2201      	movs	r2, #1
 8002470:	f884 2051 	strb.w	r2, [r4, #81]	; 0x51
 8002474:	078a      	lsls	r2, r1, #30
 8002476:	d022      	beq.n	80024be <HAL_SPI_IRQHandler+0xee>
 8002478:	685a      	ldr	r2, [r3, #4]
 800247a:	6ce0      	ldr	r0, [r4, #76]	; 0x4c
 800247c:	f022 0203 	bic.w	r2, r2, #3
 8002480:	605a      	str	r2, [r3, #4]
 8002482:	b140      	cbz	r0, 8002496 <HAL_SPI_IRQHandler+0xc6>
 8002484:	4b10      	ldr	r3, [pc, #64]	; (80024c8 <HAL_SPI_IRQHandler+0xf8>)
 8002486:	6503      	str	r3, [r0, #80]	; 0x50
 8002488:	f7fe ff5e 	bl	8001348 <HAL_DMA_Abort_IT>
 800248c:	b118      	cbz	r0, 8002496 <HAL_SPI_IRQHandler+0xc6>
 800248e:	6d63      	ldr	r3, [r4, #84]	; 0x54
 8002490:	f043 0340 	orr.w	r3, r3, #64	; 0x40
 8002494:	6563      	str	r3, [r4, #84]	; 0x54
 8002496:	6ca0      	ldr	r0, [r4, #72]	; 0x48
 8002498:	b178      	cbz	r0, 80024ba <HAL_SPI_IRQHandler+0xea>
 800249a:	4b0b      	ldr	r3, [pc, #44]	; (80024c8 <HAL_SPI_IRQHandler+0xf8>)
 800249c:	6503      	str	r3, [r0, #80]	; 0x50
 800249e:	f7fe ff53 	bl	8001348 <HAL_DMA_Abort_IT>
 80024a2:	b150      	cbz	r0, 80024ba <HAL_SPI_IRQHandler+0xea>
 80024a4:	6d63      	ldr	r3, [r4, #84]	; 0x54
 80024a6:	f043 0340 	orr.w	r3, r3, #64	; 0x40
 80024aa:	6563      	str	r3, [r4, #84]	; 0x54
 80024ac:	e005      	b.n	80024ba <HAL_SPI_IRQHandler+0xea>
 80024ae:	9501      	str	r5, [sp, #4]
 80024b0:	68da      	ldr	r2, [r3, #12]
 80024b2:	9201      	str	r2, [sp, #4]
 80024b4:	689b      	ldr	r3, [r3, #8]
 80024b6:	9301      	str	r3, [sp, #4]
 80024b8:	9b01      	ldr	r3, [sp, #4]
 80024ba:	b005      	add	sp, #20
 80024bc:	bd30      	pop	{r4, r5, pc}
 80024be:	4620      	mov	r0, r4
 80024c0:	f7ff ff84 	bl	80023cc <HAL_SPI_ErrorCallback>
 80024c4:	e7f9      	b.n	80024ba <HAL_SPI_IRQHandler+0xea>
 80024c6:	bf00      	nop
 80024c8:	080024cd 	.word	0x080024cd

080024cc <SPI_DMAAbortOnError>:
 80024cc:	b508      	push	{r3, lr}
 80024ce:	6b80      	ldr	r0, [r0, #56]	; 0x38
 80024d0:	2300      	movs	r3, #0
 80024d2:	87c3      	strh	r3, [r0, #62]	; 0x3e
 80024d4:	86c3      	strh	r3, [r0, #54]	; 0x36
 80024d6:	f7ff ff79 	bl	80023cc <HAL_SPI_ErrorCallback>
 80024da:	bd08      	pop	{r3, pc}

080024dc <TIM_OC1_SetConfig>:
 80024dc:	6a03      	ldr	r3, [r0, #32]
 80024de:	f023 0301 	bic.w	r3, r3, #1
 80024e2:	6203      	str	r3, [r0, #32]
 80024e4:	6a03      	ldr	r3, [r0, #32]
 80024e6:	b570      	push	{r4, r5, r6, lr}
 80024e8:	6844      	ldr	r4, [r0, #4]
 80024ea:	6982      	ldr	r2, [r0, #24]
 80024ec:	680d      	ldr	r5, [r1, #0]
 80024ee:	f022 0273 	bic.w	r2, r2, #115	; 0x73
 80024f2:	432a      	orrs	r2, r5
 80024f4:	688d      	ldr	r5, [r1, #8]
 80024f6:	f023 0302 	bic.w	r3, r3, #2
 80024fa:	432b      	orrs	r3, r5
 80024fc:	4d0e      	ldr	r5, [pc, #56]	; (8002538 <TIM_OC1_SetConfig+0x5c>)
 80024fe:	42a8      	cmp	r0, r5
 8002500:	d002      	beq.n	8002508 <TIM_OC1_SetConfig+0x2c>
 8002502:	4e0e      	ldr	r6, [pc, #56]	; (800253c <TIM_OC1_SetConfig+0x60>)
 8002504:	42b0      	cmp	r0, r6
 8002506:	d110      	bne.n	800252a <TIM_OC1_SetConfig+0x4e>
 8002508:	68ce      	ldr	r6, [r1, #12]
 800250a:	f023 0308 	bic.w	r3, r3, #8
 800250e:	4333      	orrs	r3, r6
 8002510:	42a8      	cmp	r0, r5
 8002512:	f023 0304 	bic.w	r3, r3, #4
 8002516:	d002      	beq.n	800251e <TIM_OC1_SetConfig+0x42>
 8002518:	4d08      	ldr	r5, [pc, #32]	; (800253c <TIM_OC1_SetConfig+0x60>)
 800251a:	42a8      	cmp	r0, r5
 800251c:	d105      	bne.n	800252a <TIM_OC1_SetConfig+0x4e>
 800251e:	e9d1 5605 	ldrd	r5, r6, [r1, #20]
 8002522:	f424 7440 	bic.w	r4, r4, #768	; 0x300
 8002526:	4335      	orrs	r5, r6
 8002528:	432c      	orrs	r4, r5
 800252a:	6044      	str	r4, [r0, #4]
 800252c:	6182      	str	r2, [r0, #24]
 800252e:	684a      	ldr	r2, [r1, #4]
 8002530:	6342      	str	r2, [r0, #52]	; 0x34
 8002532:	6203      	str	r3, [r0, #32]
 8002534:	bd70      	pop	{r4, r5, r6, pc}
 8002536:	bf00      	nop
 8002538:	40010000 	.word	0x40010000
 800253c:	40010400 	.word	0x40010400

08002540 <TIM_OC3_SetConfig>:
 8002540:	6a03      	ldr	r3, [r0, #32]
 8002542:	f423 7380 	bic.w	r3, r3, #256	; 0x100
 8002546:	6203      	str	r3, [r0, #32]
 8002548:	6a03      	ldr	r3, [r0, #32]
 800254a:	b570      	push	{r4, r5, r6, lr}
 800254c:	6844      	ldr	r4, [r0, #4]
 800254e:	69c2      	ldr	r2, [r0, #28]
 8002550:	680d      	ldr	r5, [r1, #0]
 8002552:	f022 0273 	bic.w	r2, r2, #115	; 0x73
 8002556:	432a      	orrs	r2, r5
 8002558:	688d      	ldr	r5, [r1, #8]
 800255a:	f423 7300 	bic.w	r3, r3, #512	; 0x200
 800255e:	ea43 2305 	orr.w	r3, r3, r5, lsl #8
 8002562:	4d11      	ldr	r5, [pc, #68]	; (80025a8 <TIM_OC3_SetConfig+0x68>)
 8002564:	42a8      	cmp	r0, r5
 8002566:	d003      	beq.n	8002570 <TIM_OC3_SetConfig+0x30>
 8002568:	f505 6580 	add.w	r5, r5, #1024	; 0x400
 800256c:	42a8      	cmp	r0, r5
 800256e:	d114      	bne.n	800259a <TIM_OC3_SetConfig+0x5a>
 8002570:	68cd      	ldr	r5, [r1, #12]
 8002572:	f423 6300 	bic.w	r3, r3, #2048	; 0x800
 8002576:	ea43 2305 	orr.w	r3, r3, r5, lsl #8
 800257a:	4d0b      	ldr	r5, [pc, #44]	; (80025a8 <TIM_OC3_SetConfig+0x68>)
 800257c:	42a8      	cmp	r0, r5
 800257e:	f423 6380 	bic.w	r3, r3, #1024	; 0x400
 8002582:	d003      	beq.n	800258c <TIM_OC3_SetConfig+0x4c>
 8002584:	f505 6580 	add.w	r5, r5, #1024	; 0x400
 8002588:	42a8      	cmp	r0, r5
 800258a:	d106      	bne.n	800259a <TIM_OC3_SetConfig+0x5a>
 800258c:	e9d1 5605 	ldrd	r5, r6, [r1, #20]
 8002590:	f424 5440 	bic.w	r4, r4, #12288	; 0x3000
 8002594:	4335      	orrs	r5, r6
 8002596:	ea44 1405 	orr.w	r4, r4, r5, lsl #4
 800259a:	6044      	str	r4, [r0, #4]
 800259c:	61c2      	str	r2, [r0, #28]
 800259e:	684a      	ldr	r2, [r1, #4]
 80025a0:	63c2      	str	r2, [r0, #60]	; 0x3c
 80025a2:	6203      	str	r3, [r0, #32]
 80025a4:	bd70      	pop	{r4, r5, r6, pc}
 80025a6:	bf00      	nop
 80025a8:	40010000 	.word	0x40010000

080025ac <TIM_OC4_SetConfig>:
 80025ac:	6a03      	ldr	r3, [r0, #32]
 80025ae:	f423 5380 	bic.w	r3, r3, #4096	; 0x1000
 80025b2:	6203      	str	r3, [r0, #32]
 80025b4:	6a03      	ldr	r3, [r0, #32]
 80025b6:	b530      	push	{r4, r5, lr}
 80025b8:	6844      	ldr	r4, [r0, #4]
 80025ba:	69c2      	ldr	r2, [r0, #28]
 80025bc:	680d      	ldr	r5, [r1, #0]
 80025be:	f422 42e6 	bic.w	r2, r2, #29440	; 0x7300
 80025c2:	ea42 2205 	orr.w	r2, r2, r5, lsl #8
 80025c6:	688d      	ldr	r5, [r1, #8]
 80025c8:	f423 5300 	bic.w	r3, r3, #8192	; 0x2000
 80025cc:	ea43 3305 	orr.w	r3, r3, r5, lsl #12
 80025d0:	4d08      	ldr	r5, [pc, #32]	; (80025f4 <TIM_OC4_SetConfig+0x48>)
 80025d2:	42a8      	cmp	r0, r5
 80025d4:	d003      	beq.n	80025de <TIM_OC4_SetConfig+0x32>
 80025d6:	f505 6580 	add.w	r5, r5, #1024	; 0x400
 80025da:	42a8      	cmp	r0, r5
 80025dc:	d104      	bne.n	80025e8 <TIM_OC4_SetConfig+0x3c>
 80025de:	694d      	ldr	r5, [r1, #20]
 80025e0:	f424 4480 	bic.w	r4, r4, #16384	; 0x4000
 80025e4:	ea44 1485 	orr.w	r4, r4, r5, lsl #6
 80025e8:	6044      	str	r4, [r0, #4]
 80025ea:	61c2      	str	r2, [r0, #28]
 80025ec:	684a      	ldr	r2, [r1, #4]
 80025ee:	6402      	str	r2, [r0, #64]	; 0x40
 80025f0:	6203      	str	r3, [r0, #32]
 80025f2:	bd30      	pop	{r4, r5, pc}
 80025f4:	40010000 	.word	0x40010000

080025f8 <HAL_TIM_Base_MspInit>:
 80025f8:	4770      	bx	lr
	...

080025fc <HAL_TIM_Base_Start_IT>:
 80025fc:	f890 303d 	ldrb.w	r3, [r0, #61]	; 0x3d
 8002600:	2b01      	cmp	r3, #1
 8002602:	d130      	bne.n	8002666 <HAL_TIM_Base_Start_IT+0x6a>
 8002604:	2302      	movs	r3, #2
 8002606:	f880 303d 	strb.w	r3, [r0, #61]	; 0x3d
 800260a:	6803      	ldr	r3, [r0, #0]
 800260c:	68da      	ldr	r2, [r3, #12]
 800260e:	f042 0201 	orr.w	r2, r2, #1
 8002612:	60da      	str	r2, [r3, #12]
 8002614:	4a15      	ldr	r2, [pc, #84]	; (800266c <HAL_TIM_Base_Start_IT+0x70>)
 8002616:	4293      	cmp	r3, r2
 8002618:	d01a      	beq.n	8002650 <HAL_TIM_Base_Start_IT+0x54>
 800261a:	f1b3 4f80 	cmp.w	r3, #1073741824	; 0x40000000
 800261e:	d017      	beq.n	8002650 <HAL_TIM_Base_Start_IT+0x54>
 8002620:	f5a2 427c 	sub.w	r2, r2, #64512	; 0xfc00
 8002624:	4293      	cmp	r3, r2
 8002626:	d013      	beq.n	8002650 <HAL_TIM_Base_Start_IT+0x54>
 8002628:	f502 6280 	add.w	r2, r2, #1024	; 0x400
 800262c:	4293      	cmp	r3, r2
 800262e:	d00f      	beq.n	8002650 <HAL_TIM_Base_Start_IT+0x54>
 8002630:	f502 6280 	add.w	r2, r2, #1024	; 0x400
 8002634:	4293      	cmp	r3, r2
 8002636:	d00b      	beq.n	8002650 <HAL_TIM_Base_Start_IT+0x54>
 8002638:	f502 4278 	add.w	r2, r2, #63488	; 0xf800
 800263c:	4293      	cmp	r3, r2
 800263e:	d007      	beq.n	8002650 <HAL_TIM_Base_Start_IT+0x54>
 8002640:	f502 5270 	add.w	r2, r2, #15360	; 0x3c00
 8002644:	4293      	cmp	r3, r2
 8002646:	d003      	beq.n	8002650 <HAL_TIM_Base_Start_IT+0x54>
 8002648:	f5a2 3294 	sub.w	r2, r2, #75776	; 0x12800
 800264c:	4293      	cmp	r3, r2
 800264e:	d104      	bne.n	800265a <HAL_TIM_Base_Start_IT+0x5e>
 8002650:	689a      	ldr	r2, [r3, #8]
 8002652:	f002 0207 	and.w	r2, r2, #7
 8002656:	2a06      	cmp	r2, #6
 8002658:	d003      	beq.n	8002662 <HAL_TIM_Base_Start_IT+0x66>
 800265a:	681a      	ldr	r2, [r3, #0]
 800265c:	f042 0201 	orr.w	r2, r2, #1
 8002660:	601a      	str	r2, [r3, #0]
 8002662:	2000      	movs	r0, #0
 8002664:	4770      	bx	lr
 8002666:	2001      	movs	r0, #1
 8002668:	4770      	bx	lr
 800266a:	bf00      	nop
 800266c:	40010000 	.word	0x40010000

08002670 <HAL_TIM_OC_DelayElapsedCallback>:
 8002670:	4770      	bx	lr

08002672 <HAL_TIM_IC_CaptureCallback>:
 8002672:	4770      	bx	lr

08002674 <HAL_TIM_PWM_PulseFinishedCallback>:
 8002674:	4770      	bx	lr

08002676 <HAL_TIM_TriggerCallback>:
 8002676:	4770      	bx	lr

08002678 <HAL_TIM_IRQHandler>:
 8002678:	6803      	ldr	r3, [r0, #0]
 800267a:	691a      	ldr	r2, [r3, #16]
 800267c:	0791      	lsls	r1, r2, #30
 800267e:	b510      	push	{r4, lr}
 8002680:	4604      	mov	r4, r0
 8002682:	d50e      	bpl.n	80026a2 <HAL_TIM_IRQHandler+0x2a>
 8002684:	68da      	ldr	r2, [r3, #12]
 8002686:	0792      	lsls	r2, r2, #30
 8002688:	d50b      	bpl.n	80026a2 <HAL_TIM_IRQHandler+0x2a>
 800268a:	f06f 0202 	mvn.w	r2, #2
 800268e:	611a      	str	r2, [r3, #16]
 8002690:	2201      	movs	r2, #1
 8002692:	7702      	strb	r2, [r0, #28]
 8002694:	699b      	ldr	r3, [r3, #24]
 8002696:	079b      	lsls	r3, r3, #30
 8002698:	d077      	beq.n	800278a <HAL_TIM_IRQHandler+0x112>
 800269a:	f7ff ffea 	bl	8002672 <HAL_TIM_IC_CaptureCallback>
 800269e:	2300      	movs	r3, #0
 80026a0:	7723      	strb	r3, [r4, #28]
 80026a2:	6823      	ldr	r3, [r4, #0]
 80026a4:	691a      	ldr	r2, [r3, #16]
 80026a6:	0750      	lsls	r0, r2, #29
 80026a8:	d510      	bpl.n	80026cc <HAL_TIM_IRQHandler+0x54>
 80026aa:	68da      	ldr	r2, [r3, #12]
 80026ac:	0751      	lsls	r1, r2, #29
 80026ae:	d50d      	bpl.n	80026cc <HAL_TIM_IRQHandler+0x54>
 80026b0:	f06f 0204 	mvn.w	r2, #4
 80026b4:	611a      	str	r2, [r3, #16]
 80026b6:	2202      	movs	r2, #2
 80026b8:	7722      	strb	r2, [r4, #28]
 80026ba:	699b      	ldr	r3, [r3, #24]
 80026bc:	f413 7f40 	tst.w	r3, #768	; 0x300
 80026c0:	4620      	mov	r0, r4
 80026c2:	d068      	beq.n	8002796 <HAL_TIM_IRQHandler+0x11e>
 80026c4:	f7ff ffd5 	bl	8002672 <HAL_TIM_IC_CaptureCallback>
 80026c8:	2300      	movs	r3, #0
 80026ca:	7723      	strb	r3, [r4, #28]
 80026cc:	6823      	ldr	r3, [r4, #0]
 80026ce:	691a      	ldr	r2, [r3, #16]
 80026d0:	0712      	lsls	r2, r2, #28
 80026d2:	d50f      	bpl.n	80026f4 <HAL_TIM_IRQHandler+0x7c>
 80026d4:	68da      	ldr	r2, [r3, #12]
 80026d6:	0710      	lsls	r0, r2, #28
 80026d8:	d50c      	bpl.n	80026f4 <HAL_TIM_IRQHandler+0x7c>
 80026da:	f06f 0208 	mvn.w	r2, #8
 80026de:	611a      	str	r2, [r3, #16]
 80026e0:	2204      	movs	r2, #4
 80026e2:	7722      	strb	r2, [r4, #28]
 80026e4:	69db      	ldr	r3, [r3, #28]
 80026e6:	0799      	lsls	r1, r3, #30
 80026e8:	4620      	mov	r0, r4
 80026ea:	d05a      	beq.n	80027a2 <HAL_TIM_IRQHandler+0x12a>
 80026ec:	f7ff ffc1 	bl	8002672 <HAL_TIM_IC_CaptureCallback>
 80026f0:	2300      	movs	r3, #0
 80026f2:	7723      	strb	r3, [r4, #28]
 80026f4:	6823      	ldr	r3, [r4, #0]
 80026f6:	691a      	ldr	r2, [r3, #16]
 80026f8:	06d2      	lsls	r2, r2, #27
 80026fa:	d510      	bpl.n	800271e <HAL_TIM_IRQHandler+0xa6>
 80026fc:	68da      	ldr	r2, [r3, #12]
 80026fe:	06d0      	lsls	r0, r2, #27
 8002700:	d50d      	bpl.n	800271e <HAL_TIM_IRQHandler+0xa6>
 8002702:	f06f 0210 	mvn.w	r2, #16
 8002706:	611a      	str	r2, [r3, #16]
 8002708:	2208      	movs	r2, #8
 800270a:	7722      	strb	r2, [r4, #28]
 800270c:	69db      	ldr	r3, [r3, #28]
 800270e:	f413 7f40 	tst.w	r3, #768	; 0x300
 8002712:	4620      	mov	r0, r4
 8002714:	d04b      	beq.n	80027ae <HAL_TIM_IRQHandler+0x136>
 8002716:	f7ff ffac 	bl	8002672 <HAL_TIM_IC_CaptureCallback>
 800271a:	2300      	movs	r3, #0
 800271c:	7723      	strb	r3, [r4, #28]
 800271e:	6823      	ldr	r3, [r4, #0]
 8002720:	691a      	ldr	r2, [r3, #16]
 8002722:	07d1      	lsls	r1, r2, #31
 8002724:	d508      	bpl.n	8002738 <HAL_TIM_IRQHandler+0xc0>
 8002726:	68da      	ldr	r2, [r3, #12]
 8002728:	07d2      	lsls	r2, r2, #31
 800272a:	d505      	bpl.n	8002738 <HAL_TIM_IRQHandler+0xc0>
 800272c:	f06f 0201 	mvn.w	r2, #1
 8002730:	611a      	str	r2, [r3, #16]
 8002732:	4620      	mov	r0, r4
 8002734:	f7fe f8b4 	bl	80008a0 <HAL_TIM_PeriodElapsedCallback>
 8002738:	6823      	ldr	r3, [r4, #0]
 800273a:	691a      	ldr	r2, [r3, #16]
 800273c:	0610      	lsls	r0, r2, #24
 800273e:	d508      	bpl.n	8002752 <HAL_TIM_IRQHandler+0xda>
 8002740:	68da      	ldr	r2, [r3, #12]
 8002742:	0611      	lsls	r1, r2, #24
 8002744:	d505      	bpl.n	8002752 <HAL_TIM_IRQHandler+0xda>
 8002746:	f06f 0280 	mvn.w	r2, #128	; 0x80
 800274a:	611a      	str	r2, [r3, #16]
 800274c:	4620      	mov	r0, r4
 800274e:	f000 f9c2 	bl	8002ad6 <HAL_TIMEx_BreakCallback>
 8002752:	6823      	ldr	r3, [r4, #0]
 8002754:	691a      	ldr	r2, [r3, #16]
 8002756:	0652      	lsls	r2, r2, #25
 8002758:	d508      	bpl.n	800276c <HAL_TIM_IRQHandler+0xf4>
 800275a:	68da      	ldr	r2, [r3, #12]
 800275c:	0650      	lsls	r0, r2, #25
 800275e:	d505      	bpl.n	800276c <HAL_TIM_IRQHandler+0xf4>
 8002760:	f06f 0240 	mvn.w	r2, #64	; 0x40
 8002764:	611a      	str	r2, [r3, #16]
 8002766:	4620      	mov	r0, r4
 8002768:	f7ff ff85 	bl	8002676 <HAL_TIM_TriggerCallback>
 800276c:	6823      	ldr	r3, [r4, #0]
 800276e:	691a      	ldr	r2, [r3, #16]
 8002770:	0691      	lsls	r1, r2, #26
 8002772:	d522      	bpl.n	80027ba <HAL_TIM_IRQHandler+0x142>
 8002774:	68da      	ldr	r2, [r3, #12]
 8002776:	0692      	lsls	r2, r2, #26
 8002778:	d51f      	bpl.n	80027ba <HAL_TIM_IRQHandler+0x142>
 800277a:	f06f 0220 	mvn.w	r2, #32
 800277e:	4620      	mov	r0, r4
 8002780:	611a      	str	r2, [r3, #16]
 8002782:	e8bd 4010 	ldmia.w	sp!, {r4, lr}
 8002786:	f000 b9a5 	b.w	8002ad4 <HAL_TIMEx_CommutCallback>
 800278a:	f7ff ff71 	bl	8002670 <HAL_TIM_OC_DelayElapsedCallback>
 800278e:	4620      	mov	r0, r4
 8002790:	f7ff ff70 	bl	8002674 <HAL_TIM_PWM_PulseFinishedCallback>
 8002794:	e783      	b.n	800269e <HAL_TIM_IRQHandler+0x26>
 8002796:	f7ff ff6b 	bl	8002670 <HAL_TIM_OC_DelayElapsedCallback>
 800279a:	4620      	mov	r0, r4
 800279c:	f7ff ff6a 	bl	8002674 <HAL_TIM_PWM_PulseFinishedCallback>
 80027a0:	e792      	b.n	80026c8 <HAL_TIM_IRQHandler+0x50>
 80027a2:	f7ff ff65 	bl	8002670 <HAL_TIM_OC_DelayElapsedCallback>
 80027a6:	4620      	mov	r0, r4
 80027a8:	f7ff ff64 	bl	8002674 <HAL_TIM_PWM_PulseFinishedCallback>
 80027ac:	e7a0      	b.n	80026f0 <HAL_TIM_IRQHandler+0x78>
 80027ae:	f7ff ff5f 	bl	8002670 <HAL_TIM_OC_DelayElapsedCallback>
 80027b2:	4620      	mov	r0, r4
 80027b4:	f7ff ff5e 	bl	8002674 <HAL_TIM_PWM_PulseFinishedCallback>
 80027b8:	e7af      	b.n	800271a <HAL_TIM_IRQHandler+0xa2>
 80027ba:	bd10      	pop	{r4, pc}

080027bc <TIM_Base_SetConfig>:
 80027bc:	4a30      	ldr	r2, [pc, #192]	; (8002880 <TIM_Base_SetConfig+0xc4>)
 80027be:	6803      	ldr	r3, [r0, #0]
 80027c0:	4290      	cmp	r0, r2
 80027c2:	d012      	beq.n	80027ea <TIM_Base_SetConfig+0x2e>
 80027c4:	f1b0 4f80 	cmp.w	r0, #1073741824	; 0x40000000
 80027c8:	d00f      	beq.n	80027ea <TIM_Base_SetConfig+0x2e>
 80027ca:	f5a2 427c 	sub.w	r2, r2, #64512	; 0xfc00
 80027ce:	4290      	cmp	r0, r2
 80027d0:	d00b      	beq.n	80027ea <TIM_Base_SetConfig+0x2e>
 80027d2:	f502 6280 	add.w	r2, r2, #1024	; 0x400
 80027d6:	4290      	cmp	r0, r2
 80027d8:	d007      	beq.n	80027ea <TIM_Base_SetConfig+0x2e>
 80027da:	f502 6280 	add.w	r2, r2, #1024	; 0x400
 80027de:	4290      	cmp	r0, r2
 80027e0:	d003      	beq.n	80027ea <TIM_Base_SetConfig+0x2e>
 80027e2:	f502 4278 	add.w	r2, r2, #63488	; 0xf800
 80027e6:	4290      	cmp	r0, r2
 80027e8:	d119      	bne.n	800281e <TIM_Base_SetConfig+0x62>
 80027ea:	684a      	ldr	r2, [r1, #4]
 80027ec:	f023 0370 	bic.w	r3, r3, #112	; 0x70
 80027f0:	4313      	orrs	r3, r2
 80027f2:	4a23      	ldr	r2, [pc, #140]	; (8002880 <TIM_Base_SetConfig+0xc4>)
 80027f4:	4290      	cmp	r0, r2
 80027f6:	d029      	beq.n	800284c <TIM_Base_SetConfig+0x90>
 80027f8:	f1b0 4f80 	cmp.w	r0, #1073741824	; 0x40000000
 80027fc:	d026      	beq.n	800284c <TIM_Base_SetConfig+0x90>
 80027fe:	f5a2 427c 	sub.w	r2, r2, #64512	; 0xfc00
 8002802:	4290      	cmp	r0, r2
 8002804:	d022      	beq.n	800284c <TIM_Base_SetConfig+0x90>
 8002806:	f502 6280 	add.w	r2, r2, #1024	; 0x400
 800280a:	4290      	cmp	r0, r2
 800280c:	d01e      	beq.n	800284c <TIM_Base_SetConfig+0x90>
 800280e:	f502 6280 	add.w	r2, r2, #1024	; 0x400
 8002812:	4290      	cmp	r0, r2
 8002814:	d01a      	beq.n	800284c <TIM_Base_SetConfig+0x90>
 8002816:	f502 4278 	add.w	r2, r2, #63488	; 0xf800
 800281a:	4290      	cmp	r0, r2
 800281c:	d016      	beq.n	800284c <TIM_Base_SetConfig+0x90>
 800281e:	4a19      	ldr	r2, [pc, #100]	; (8002884 <TIM_Base_SetConfig+0xc8>)
 8002820:	4290      	cmp	r0, r2
 8002822:	d013      	beq.n	800284c <TIM_Base_SetConfig+0x90>
 8002824:	f502 6280 	add.w	r2, r2, #1024	; 0x400
 8002828:	4290      	cmp	r0, r2
 800282a:	d00f      	beq.n	800284c <TIM_Base_SetConfig+0x90>
 800282c:	f502 6280 	add.w	r2, r2, #1024	; 0x400
 8002830:	4290      	cmp	r0, r2
 8002832:	d00b      	beq.n	800284c <TIM_Base_SetConfig+0x90>
 8002834:	f5a2 3298 	sub.w	r2, r2, #77824	; 0x13000
 8002838:	4290      	cmp	r0, r2
 800283a:	d007      	beq.n	800284c <TIM_Base_SetConfig+0x90>
 800283c:	f502 6280 	add.w	r2, r2, #1024	; 0x400
 8002840:	4290      	cmp	r0, r2
 8002842:	d003      	beq.n	800284c <TIM_Base_SetConfig+0x90>
 8002844:	f502 6280 	add.w	r2, r2, #1024	; 0x400
 8002848:	4290      	cmp	r0, r2
 800284a:	d103      	bne.n	8002854 <TIM_Base_SetConfig+0x98>
 800284c:	68ca      	ldr	r2, [r1, #12]
 800284e:	f423 7340 	bic.w	r3, r3, #768	; 0x300
 8002852:	4313      	orrs	r3, r2
 8002854:	694a      	ldr	r2, [r1, #20]
 8002856:	f023 0380 	bic.w	r3, r3, #128	; 0x80
 800285a:	4313      	orrs	r3, r2
 800285c:	6003      	str	r3, [r0, #0]
 800285e:	688b      	ldr	r3, [r1, #8]
 8002860:	62c3      	str	r3, [r0, #44]	; 0x2c
 8002862:	680b      	ldr	r3, [r1, #0]
 8002864:	6283      	str	r3, [r0, #40]	; 0x28
 8002866:	4b06      	ldr	r3, [pc, #24]	; (8002880 <TIM_Base_SetConfig+0xc4>)
 8002868:	4298      	cmp	r0, r3
 800286a:	d003      	beq.n	8002874 <TIM_Base_SetConfig+0xb8>
 800286c:	f503 6380 	add.w	r3, r3, #1024	; 0x400
 8002870:	4298      	cmp	r0, r3
 8002872:	d101      	bne.n	8002878 <TIM_Base_SetConfig+0xbc>
 8002874:	690b      	ldr	r3, [r1, #16]
 8002876:	6303      	str	r3, [r0, #48]	; 0x30
 8002878:	2301      	movs	r3, #1
 800287a:	6143      	str	r3, [r0, #20]
 800287c:	4770      	bx	lr
 800287e:	bf00      	nop
 8002880:	40010000 	.word	0x40010000
 8002884:	40014000 	.word	0x40014000

08002888 <HAL_TIM_Base_Init>:
 8002888:	b510      	push	{r4, lr}
 800288a:	4604      	mov	r4, r0
 800288c:	b330      	cbz	r0, 80028dc <HAL_TIM_Base_Init+0x54>
 800288e:	f890 303d 	ldrb.w	r3, [r0, #61]	; 0x3d
 8002892:	f003 02ff 	and.w	r2, r3, #255	; 0xff
 8002896:	b91b      	cbnz	r3, 80028a0 <HAL_TIM_Base_Init+0x18>
 8002898:	f880 203c 	strb.w	r2, [r0, #60]	; 0x3c
 800289c:	f7ff feac 	bl	80025f8 <HAL_TIM_Base_MspInit>
 80028a0:	2302      	movs	r3, #2
 80028a2:	6820      	ldr	r0, [r4, #0]
 80028a4:	f884 303d 	strb.w	r3, [r4, #61]	; 0x3d
 80028a8:	1d21      	adds	r1, r4, #4
 80028aa:	f7ff ff87 	bl	80027bc <TIM_Base_SetConfig>
 80028ae:	2301      	movs	r3, #1
 80028b0:	f884 3046 	strb.w	r3, [r4, #70]	; 0x46
 80028b4:	2000      	movs	r0, #0
 80028b6:	f884 303e 	strb.w	r3, [r4, #62]	; 0x3e
 80028ba:	f884 303f 	strb.w	r3, [r4, #63]	; 0x3f
 80028be:	f884 3040 	strb.w	r3, [r4, #64]	; 0x40
 80028c2:	f884 3041 	strb.w	r3, [r4, #65]	; 0x41
 80028c6:	f884 3042 	strb.w	r3, [r4, #66]	; 0x42
 80028ca:	f884 3043 	strb.w	r3, [r4, #67]	; 0x43
 80028ce:	f884 3044 	strb.w	r3, [r4, #68]	; 0x44
 80028d2:	f884 3045 	strb.w	r3, [r4, #69]	; 0x45
 80028d6:	f884 303d 	strb.w	r3, [r4, #61]	; 0x3d
 80028da:	bd10      	pop	{r4, pc}
 80028dc:	2001      	movs	r0, #1
 80028de:	e7fc      	b.n	80028da <HAL_TIM_Base_Init+0x52>

080028e0 <HAL_TIM_PWM_Init>:
 80028e0:	b510      	push	{r4, lr}
 80028e2:	4604      	mov	r4, r0
 80028e4:	b330      	cbz	r0, 8002934 <HAL_TIM_PWM_Init+0x54>
 80028e6:	f890 303d 	ldrb.w	r3, [r0, #61]	; 0x3d
 80028ea:	f003 02ff 	and.w	r2, r3, #255	; 0xff
 80028ee:	b91b      	cbnz	r3, 80028f8 <HAL_TIM_PWM_Init+0x18>
 80028f0:	f880 203c 	strb.w	r2, [r0, #60]	; 0x3c
 80028f4:	f7fe f952 	bl	8000b9c <HAL_TIM_PWM_MspInit>
 80028f8:	2302      	movs	r3, #2
 80028fa:	6820      	ldr	r0, [r4, #0]
 80028fc:	f884 303d 	strb.w	r3, [r4, #61]	; 0x3d
 8002900:	1d21      	adds	r1, r4, #4
 8002902:	f7ff ff5b 	bl	80027bc <TIM_Base_SetConfig>
 8002906:	2301      	movs	r3, #1
 8002908:	f884 3046 	strb.w	r3, [r4, #70]	; 0x46
 800290c:	2000      	movs	r0, #0
 800290e:	f884 303e 	strb.w	r3, [r4, #62]	; 0x3e
 8002912:	f884 303f 	strb.w	r3, [r4, #63]	; 0x3f
 8002916:	f884 3040 	strb.w	r3, [r4, #64]	; 0x40
 800291a:	f884 3041 	strb.w	r3, [r4, #65]	; 0x41
 800291e:	f884 3042 	strb.w	r3, [r4, #66]	; 0x42
 8002922:	f884 3043 	strb.w	r3, [r4, #67]	; 0x43
 8002926:	f884 3044 	strb.w	r3, [r4, #68]	; 0x44
 800292a:	f884 3045 	strb.w	r3, [r4, #69]	; 0x45
 800292e:	f884 303d 	strb.w	r3, [r4, #61]	; 0x3d
 8002932:	bd10      	pop	{r4, pc}
 8002934:	2001      	movs	r0, #1
 8002936:	e7fc      	b.n	8002932 <HAL_TIM_PWM_Init+0x52>

08002938 <TIM_OC2_SetConfig>:
 8002938:	6a03      	ldr	r3, [r0, #32]
 800293a:	f023 0310 	bic.w	r3, r3, #16
 800293e:	6203      	str	r3, [r0, #32]
 8002940:	6a03      	ldr	r3, [r0, #32]
 8002942:	b570      	push	{r4, r5, r6, lr}
 8002944:	6844      	ldr	r4, [r0, #4]
 8002946:	6982      	ldr	r2, [r0, #24]
 8002948:	680d      	ldr	r5, [r1, #0]
 800294a:	f422 42e6 	bic.w	r2, r2, #29440	; 0x7300
 800294e:	ea42 2205 	orr.w	r2, r2, r5, lsl #8
 8002952:	688d      	ldr	r5, [r1, #8]
 8002954:	f023 0320 	bic.w	r3, r3, #32
 8002958:	ea43 1305 	orr.w	r3, r3, r5, lsl #4
 800295c:	4d10      	ldr	r5, [pc, #64]	; (80029a0 <TIM_OC2_SetConfig+0x68>)
 800295e:	42a8      	cmp	r0, r5
 8002960:	d003      	beq.n	800296a <TIM_OC2_SetConfig+0x32>
 8002962:	f505 6580 	add.w	r5, r5, #1024	; 0x400
 8002966:	42a8      	cmp	r0, r5
 8002968:	d114      	bne.n	8002994 <TIM_OC2_SetConfig+0x5c>
 800296a:	68cd      	ldr	r5, [r1, #12]
 800296c:	f023 0380 	bic.w	r3, r3, #128	; 0x80
 8002970:	ea43 1305 	orr.w	r3, r3, r5, lsl #4
 8002974:	4d0a      	ldr	r5, [pc, #40]	; (80029a0 <TIM_OC2_SetConfig+0x68>)
 8002976:	42a8      	cmp	r0, r5
 8002978:	f023 0340 	bic.w	r3, r3, #64	; 0x40
 800297c:	d003      	beq.n	8002986 <TIM_OC2_SetConfig+0x4e>
 800297e:	f505 6580 	add.w	r5, r5, #1024	; 0x400
 8002982:	42a8      	cmp	r0, r5
 8002984:	d106      	bne.n	8002994 <TIM_OC2_SetConfig+0x5c>
 8002986:	e9d1 5605 	ldrd	r5, r6, [r1, #20]
 800298a:	f424 6440 	bic.w	r4, r4, #3072	; 0xc00
 800298e:	4335      	orrs	r5, r6
 8002990:	ea44 0485 	orr.w	r4, r4, r5, lsl #2
 8002994:	6044      	str	r4, [r0, #4]
 8002996:	6182      	str	r2, [r0, #24]
 8002998:	684a      	ldr	r2, [r1, #4]
 800299a:	6382      	str	r2, [r0, #56]	; 0x38
 800299c:	6203      	str	r3, [r0, #32]
 800299e:	bd70      	pop	{r4, r5, r6, pc}
 80029a0:	40010000 	.word	0x40010000

080029a4 <HAL_TIM_PWM_ConfigChannel>:
 80029a4:	b570      	push	{r4, r5, r6, lr}
 80029a6:	f890 303c 	ldrb.w	r3, [r0, #60]	; 0x3c
 80029aa:	2b01      	cmp	r3, #1
 80029ac:	4605      	mov	r5, r0
 80029ae:	d050      	beq.n	8002a52 <HAL_TIM_PWM_ConfigChannel+0xae>
 80029b0:	2301      	movs	r3, #1
 80029b2:	2a08      	cmp	r2, #8
 80029b4:	f880 303c 	strb.w	r3, [r0, #60]	; 0x3c
 80029b8:	d03b      	beq.n	8002a32 <HAL_TIM_PWM_ConfigChannel+0x8e>
 80029ba:	d807      	bhi.n	80029cc <HAL_TIM_PWM_ConfigChannel+0x28>
 80029bc:	b1c2      	cbz	r2, 80029f0 <HAL_TIM_PWM_ConfigChannel+0x4c>
 80029be:	2a04      	cmp	r2, #4
 80029c0:	d027      	beq.n	8002a12 <HAL_TIM_PWM_ConfigChannel+0x6e>
 80029c2:	4618      	mov	r0, r3
 80029c4:	2300      	movs	r3, #0
 80029c6:	f885 303c 	strb.w	r3, [r5, #60]	; 0x3c
 80029ca:	bd70      	pop	{r4, r5, r6, pc}
 80029cc:	2a0c      	cmp	r2, #12
 80029ce:	d1f8      	bne.n	80029c2 <HAL_TIM_PWM_ConfigChannel+0x1e>
 80029d0:	6800      	ldr	r0, [r0, #0]
 80029d2:	f7ff fdeb 	bl	80025ac <TIM_OC4_SetConfig>
 80029d6:	69c3      	ldr	r3, [r0, #28]
 80029d8:	690a      	ldr	r2, [r1, #16]
 80029da:	f443 6300 	orr.w	r3, r3, #2048	; 0x800
 80029de:	61c3      	str	r3, [r0, #28]
 80029e0:	69c3      	ldr	r3, [r0, #28]
 80029e2:	f423 6380 	bic.w	r3, r3, #1024	; 0x400
 80029e6:	61c3      	str	r3, [r0, #28]
 80029e8:	69c3      	ldr	r3, [r0, #28]
 80029ea:	ea43 2302 	orr.w	r3, r3, r2, lsl #8
 80029ee:	e02e      	b.n	8002a4e <HAL_TIM_PWM_ConfigChannel+0xaa>
 80029f0:	6800      	ldr	r0, [r0, #0]
 80029f2:	f7ff fd73 	bl	80024dc <TIM_OC1_SetConfig>
 80029f6:	6983      	ldr	r3, [r0, #24]
 80029f8:	690a      	ldr	r2, [r1, #16]
 80029fa:	f043 0308 	orr.w	r3, r3, #8
 80029fe:	6183      	str	r3, [r0, #24]
 8002a00:	6983      	ldr	r3, [r0, #24]
 8002a02:	f023 0304 	bic.w	r3, r3, #4
 8002a06:	6183      	str	r3, [r0, #24]
 8002a08:	6983      	ldr	r3, [r0, #24]
 8002a0a:	4313      	orrs	r3, r2
 8002a0c:	6183      	str	r3, [r0, #24]
 8002a0e:	2000      	movs	r0, #0
 8002a10:	e7d8      	b.n	80029c4 <HAL_TIM_PWM_ConfigChannel+0x20>
 8002a12:	6800      	ldr	r0, [r0, #0]
 8002a14:	f7ff ff90 	bl	8002938 <TIM_OC2_SetConfig>
 8002a18:	6983      	ldr	r3, [r0, #24]
 8002a1a:	690a      	ldr	r2, [r1, #16]
 8002a1c:	f443 6300 	orr.w	r3, r3, #2048	; 0x800
 8002a20:	6183      	str	r3, [r0, #24]
 8002a22:	6983      	ldr	r3, [r0, #24]
 8002a24:	f423 6380 	bic.w	r3, r3, #1024	; 0x400
 8002a28:	6183      	str	r3, [r0, #24]
 8002a2a:	6983      	ldr	r3, [r0, #24]
 8002a2c:	ea43 2302 	orr.w	r3, r3, r2, lsl #8
 8002a30:	e7ec      	b.n	8002a0c <HAL_TIM_PWM_ConfigChannel+0x68>
 8002a32:	6800      	ldr	r0, [r0, #0]
 8002a34:	f7ff fd84 	bl	8002540 <TIM_OC3_SetConfig>
 8002a38:	69c3      	ldr	r3, [r0, #28]
 8002a3a:	690a      	ldr	r2, [r1, #16]
 8002a3c:	f043 0308 	orr.w	r3, r3, #8
 8002a40:	61c3      	str	r3, [r0, #28]
 8002a42:	69c3      	ldr	r3, [r0, #28]
 8002a44:	f023 0304 	bic.w	r3, r3, #4
 8002a48:	61c3      	str	r3, [r0, #28]
 8002a4a:	69c3      	ldr	r3, [r0, #28]
 8002a4c:	4313      	orrs	r3, r2
 8002a4e:	61c3      	str	r3, [r0, #28]
 8002a50:	e7dd      	b.n	8002a0e <HAL_TIM_PWM_ConfigChannel+0x6a>
 8002a52:	2002      	movs	r0, #2
 8002a54:	e7b9      	b.n	80029ca <HAL_TIM_PWM_ConfigChannel+0x26>
	...

08002a58 <HAL_TIMEx_MasterConfigSynchronization>:
 8002a58:	b530      	push	{r4, r5, lr}
 8002a5a:	f890 303c 	ldrb.w	r3, [r0, #60]	; 0x3c
 8002a5e:	2b01      	cmp	r3, #1
 8002a60:	f04f 0302 	mov.w	r3, #2
 8002a64:	d032      	beq.n	8002acc <HAL_TIMEx_MasterConfigSynchronization+0x74>
 8002a66:	f880 303d 	strb.w	r3, [r0, #61]	; 0x3d
 8002a6a:	6803      	ldr	r3, [r0, #0]
 8002a6c:	680d      	ldr	r5, [r1, #0]
 8002a6e:	685c      	ldr	r4, [r3, #4]
 8002a70:	689a      	ldr	r2, [r3, #8]
 8002a72:	f024 0470 	bic.w	r4, r4, #112	; 0x70
 8002a76:	432c      	orrs	r4, r5
 8002a78:	605c      	str	r4, [r3, #4]
 8002a7a:	4c15      	ldr	r4, [pc, #84]	; (8002ad0 <HAL_TIMEx_MasterConfigSynchronization+0x78>)
 8002a7c:	42a3      	cmp	r3, r4
 8002a7e:	d01a      	beq.n	8002ab6 <HAL_TIMEx_MasterConfigSynchronization+0x5e>
 8002a80:	f1b3 4f80 	cmp.w	r3, #1073741824	; 0x40000000
 8002a84:	d017      	beq.n	8002ab6 <HAL_TIMEx_MasterConfigSynchronization+0x5e>
 8002a86:	f5a4 447c 	sub.w	r4, r4, #64512	; 0xfc00
 8002a8a:	42a3      	cmp	r3, r4
 8002a8c:	d013      	beq.n	8002ab6 <HAL_TIMEx_MasterConfigSynchronization+0x5e>
 8002a8e:	f504 6480 	add.w	r4, r4, #1024	; 0x400
 8002a92:	42a3      	cmp	r3, r4
 8002a94:	d00f      	beq.n	8002ab6 <HAL_TIMEx_MasterConfigSynchronization+0x5e>
 8002a96:	f504 6480 	add.w	r4, r4, #1024	; 0x400
 8002a9a:	42a3      	cmp	r3, r4
 8002a9c:	d00b      	beq.n	8002ab6 <HAL_TIMEx_MasterConfigSynchronization+0x5e>
 8002a9e:	f504 4478 	add.w	r4, r4, #63488	; 0xf800
 8002aa2:	42a3      	cmp	r3, r4
 8002aa4:	d007      	beq.n	8002ab6 <HAL_TIMEx_MasterConfigSynchronization+0x5e>
 8002aa6:	f504 5470 	add.w	r4, r4, #15360	; 0x3c00
 8002aaa:	42a3      	cmp	r3, r4
 8002aac:	d003      	beq.n	8002ab6 <HAL_TIMEx_MasterConfigSynchronization+0x5e>
 8002aae:	f5a4 3494 	sub.w	r4, r4, #75776	; 0x12800
 8002ab2:	42a3      	cmp	r3, r4
 8002ab4:	d104      	bne.n	8002ac0 <HAL_TIMEx_MasterConfigSynchronization+0x68>
 8002ab6:	6849      	ldr	r1, [r1, #4]
 8002ab8:	f022 0280 	bic.w	r2, r2, #128	; 0x80
 8002abc:	430a      	orrs	r2, r1
 8002abe:	609a      	str	r2, [r3, #8]
 8002ac0:	2301      	movs	r3, #1
 8002ac2:	f880 303d 	strb.w	r3, [r0, #61]	; 0x3d
 8002ac6:	2300      	movs	r3, #0
 8002ac8:	f880 303c 	strb.w	r3, [r0, #60]	; 0x3c
 8002acc:	4618      	mov	r0, r3
 8002ace:	bd30      	pop	{r4, r5, pc}
 8002ad0:	40010000 	.word	0x40010000

08002ad4 <HAL_TIMEx_CommutCallback>:
 8002ad4:	4770      	bx	lr

08002ad6 <HAL_TIMEx_BreakCallback>:
 8002ad6:	4770      	bx	lr

08002ad8 <UART_SetConfig>:
 8002ad8:	6802      	ldr	r2, [r0, #0]
 8002ada:	68c1      	ldr	r1, [r0, #12]
 8002adc:	6913      	ldr	r3, [r2, #16]
 8002ade:	f423 5340 	bic.w	r3, r3, #12288	; 0x3000
 8002ae2:	430b      	orrs	r3, r1
 8002ae4:	b570      	push	{r4, r5, r6, lr}
 8002ae6:	6113      	str	r3, [r2, #16]
 8002ae8:	4605      	mov	r5, r0
 8002aea:	6883      	ldr	r3, [r0, #8]
 8002aec:	6900      	ldr	r0, [r0, #16]
 8002aee:	68d1      	ldr	r1, [r2, #12]
 8002af0:	4303      	orrs	r3, r0
 8002af2:	6968      	ldr	r0, [r5, #20]
 8002af4:	4303      	orrs	r3, r0
 8002af6:	69e8      	ldr	r0, [r5, #28]
 8002af8:	f421 4116 	bic.w	r1, r1, #38400	; 0x9600
 8002afc:	f021 010c 	bic.w	r1, r1, #12
 8002b00:	4303      	orrs	r3, r0
 8002b02:	430b      	orrs	r3, r1
 8002b04:	60d3      	str	r3, [r2, #12]
 8002b06:	6953      	ldr	r3, [r2, #20]
 8002b08:	69a9      	ldr	r1, [r5, #24]
 8002b0a:	f423 7340 	bic.w	r3, r3, #768	; 0x300
 8002b0e:	430b      	orrs	r3, r1
 8002b10:	6153      	str	r3, [r2, #20]
 8002b12:	4b1f      	ldr	r3, [pc, #124]	; (8002b90 <UART_SetConfig+0xb8>)
 8002b14:	429a      	cmp	r2, r3
 8002b16:	d003      	beq.n	8002b20 <UART_SetConfig+0x48>
 8002b18:	f503 6380 	add.w	r3, r3, #1024	; 0x400
 8002b1c:	429a      	cmp	r2, r3
 8002b1e:	d123      	bne.n	8002b68 <UART_SetConfig+0x90>
 8002b20:	f7fe ffac 	bl	8001a7c <HAL_RCC_GetPCLK2Freq>
 8002b24:	69eb      	ldr	r3, [r5, #28]
 8002b26:	2119      	movs	r1, #25
 8002b28:	f5b3 4f00 	cmp.w	r3, #32768	; 0x8000
 8002b2c:	e9d5 4600 	ldrd	r4, r6, [r5]
 8002b30:	fba0 0101 	umull	r0, r1, r0, r1
 8002b34:	d11b      	bne.n	8002b6e <UART_SetConfig+0x96>
 8002b36:	19b2      	adds	r2, r6, r6
 8002b38:	f04f 0300 	mov.w	r3, #0
 8002b3c:	415b      	adcs	r3, r3
 8002b3e:	f7fd fb61 	bl	8000204 <__aeabi_uldivmod>
 8002b42:	2264      	movs	r2, #100	; 0x64
 8002b44:	fbb0 f1f2 	udiv	r1, r0, r2
 8002b48:	fb02 0311 	mls	r3, r2, r1, r0
 8002b4c:	00db      	lsls	r3, r3, #3
 8002b4e:	3332      	adds	r3, #50	; 0x32
 8002b50:	fbb3 f3f2 	udiv	r3, r3, r2
 8002b54:	f003 0207 	and.w	r2, r3, #7
 8002b58:	005b      	lsls	r3, r3, #1
 8002b5a:	eb02 1201 	add.w	r2, r2, r1, lsl #4
 8002b5e:	f403 73f8 	and.w	r3, r3, #496	; 0x1f0
 8002b62:	4413      	add	r3, r2
 8002b64:	60a3      	str	r3, [r4, #8]
 8002b66:	bd70      	pop	{r4, r5, r6, pc}
 8002b68:	f7fe ff78 	bl	8001a5c <HAL_RCC_GetPCLK1Freq>
 8002b6c:	e7da      	b.n	8002b24 <UART_SetConfig+0x4c>
 8002b6e:	00b2      	lsls	r2, r6, #2
 8002b70:	0fb3      	lsrs	r3, r6, #30
 8002b72:	f7fd fb47 	bl	8000204 <__aeabi_uldivmod>
 8002b76:	2264      	movs	r2, #100	; 0x64
 8002b78:	fbb0 f1f2 	udiv	r1, r0, r2
 8002b7c:	fb02 0311 	mls	r3, r2, r1, r0
 8002b80:	011b      	lsls	r3, r3, #4
 8002b82:	3332      	adds	r3, #50	; 0x32
 8002b84:	fbb3 f3f2 	udiv	r3, r3, r2
 8002b88:	eb03 1301 	add.w	r3, r3, r1, lsl #4
 8002b8c:	e7ea      	b.n	8002b64 <UART_SetConfig+0x8c>
 8002b8e:	bf00      	nop
 8002b90:	40011000 	.word	0x40011000

08002b94 <HAL_UART_Init>:
 8002b94:	b510      	push	{r4, lr}
 8002b96:	4604      	mov	r4, r0
 8002b98:	b340      	cbz	r0, 8002bec <HAL_UART_Init+0x58>
 8002b9a:	f890 303d 	ldrb.w	r3, [r0, #61]	; 0x3d
 8002b9e:	f003 02ff 	and.w	r2, r3, #255	; 0xff
 8002ba2:	b91b      	cbnz	r3, 8002bac <HAL_UART_Init+0x18>
 8002ba4:	f880 203c 	strb.w	r2, [r0, #60]	; 0x3c
 8002ba8:	f7fe f83a 	bl	8000c20 <HAL_UART_MspInit>
 8002bac:	6822      	ldr	r2, [r4, #0]
 8002bae:	2324      	movs	r3, #36	; 0x24
 8002bb0:	f884 303d 	strb.w	r3, [r4, #61]	; 0x3d
 8002bb4:	68d3      	ldr	r3, [r2, #12]
 8002bb6:	f423 5300 	bic.w	r3, r3, #8192	; 0x2000
 8002bba:	60d3      	str	r3, [r2, #12]
 8002bbc:	4620      	mov	r0, r4
 8002bbe:	f7ff ff8b 	bl	8002ad8 <UART_SetConfig>
 8002bc2:	6823      	ldr	r3, [r4, #0]
 8002bc4:	691a      	ldr	r2, [r3, #16]
 8002bc6:	f422 4290 	bic.w	r2, r2, #18432	; 0x4800
 8002bca:	611a      	str	r2, [r3, #16]
 8002bcc:	695a      	ldr	r2, [r3, #20]
 8002bce:	f022 022a 	bic.w	r2, r2, #42	; 0x2a
 8002bd2:	615a      	str	r2, [r3, #20]
 8002bd4:	68da      	ldr	r2, [r3, #12]
 8002bd6:	f442 5200 	orr.w	r2, r2, #8192	; 0x2000
 8002bda:	60da      	str	r2, [r3, #12]
 8002bdc:	2000      	movs	r0, #0
 8002bde:	2320      	movs	r3, #32
 8002be0:	6420      	str	r0, [r4, #64]	; 0x40
 8002be2:	f884 303d 	strb.w	r3, [r4, #61]	; 0x3d
 8002be6:	f884 303e 	strb.w	r3, [r4, #62]	; 0x3e
 8002bea:	bd10      	pop	{r4, pc}
 8002bec:	2001      	movs	r0, #1
 8002bee:	e7fc      	b.n	8002bea <HAL_UART_Init+0x56>

08002bf0 <USB_CoreReset>:
 8002bf0:	b082      	sub	sp, #8
 8002bf2:	2300      	movs	r3, #0
 8002bf4:	4a10      	ldr	r2, [pc, #64]	; (8002c38 <USB_CoreReset+0x48>)
 8002bf6:	9301      	str	r3, [sp, #4]
 8002bf8:	9b01      	ldr	r3, [sp, #4]
 8002bfa:	3301      	adds	r3, #1
 8002bfc:	9301      	str	r3, [sp, #4]
 8002bfe:	9b01      	ldr	r3, [sp, #4]
 8002c00:	4293      	cmp	r3, r2
 8002c02:	d816      	bhi.n	8002c32 <USB_CoreReset+0x42>
 8002c04:	6903      	ldr	r3, [r0, #16]
 8002c06:	2b00      	cmp	r3, #0
 8002c08:	daf6      	bge.n	8002bf8 <USB_CoreReset+0x8>
 8002c0a:	2300      	movs	r3, #0
 8002c0c:	9301      	str	r3, [sp, #4]
 8002c0e:	6903      	ldr	r3, [r0, #16]
 8002c10:	4a09      	ldr	r2, [pc, #36]	; (8002c38 <USB_CoreReset+0x48>)
 8002c12:	f043 0301 	orr.w	r3, r3, #1
 8002c16:	6103      	str	r3, [r0, #16]
 8002c18:	9b01      	ldr	r3, [sp, #4]
 8002c1a:	3301      	adds	r3, #1
 8002c1c:	9301      	str	r3, [sp, #4]
 8002c1e:	9b01      	ldr	r3, [sp, #4]
 8002c20:	4293      	cmp	r3, r2
 8002c22:	d806      	bhi.n	8002c32 <USB_CoreReset+0x42>
 8002c24:	6903      	ldr	r3, [r0, #16]
 8002c26:	f013 0301 	ands.w	r3, r3, #1
 8002c2a:	d1f5      	bne.n	8002c18 <USB_CoreReset+0x28>
 8002c2c:	4618      	mov	r0, r3
 8002c2e:	b002      	add	sp, #8
 8002c30:	4770      	bx	lr
 8002c32:	2003      	movs	r0, #3
 8002c34:	e7fb      	b.n	8002c2e <USB_CoreReset+0x3e>
 8002c36:	bf00      	nop
 8002c38:	00030d40 	.word	0x00030d40

08002c3c <USB_CoreInit>:
 8002c3c:	b084      	sub	sp, #16
 8002c3e:	b538      	push	{r3, r4, r5, lr}
 8002c40:	ad05      	add	r5, sp, #20
 8002c42:	e885 000e 	stmia.w	r5, {r1, r2, r3}
 8002c46:	9b0a      	ldr	r3, [sp, #40]	; 0x28
 8002c48:	2b01      	cmp	r3, #1
 8002c4a:	4604      	mov	r4, r0
 8002c4c:	d125      	bne.n	8002c9a <USB_CoreInit+0x5e>
 8002c4e:	6b83      	ldr	r3, [r0, #56]	; 0x38
 8002c50:	f423 3380 	bic.w	r3, r3, #65536	; 0x10000
 8002c54:	6383      	str	r3, [r0, #56]	; 0x38
 8002c56:	68c3      	ldr	r3, [r0, #12]
 8002c58:	f423 0384 	bic.w	r3, r3, #4325376	; 0x420000
 8002c5c:	f023 0340 	bic.w	r3, r3, #64	; 0x40
 8002c60:	60c3      	str	r3, [r0, #12]
 8002c62:	68c3      	ldr	r3, [r0, #12]
 8002c64:	f423 1340 	bic.w	r3, r3, #3145728	; 0x300000
 8002c68:	60c3      	str	r3, [r0, #12]
 8002c6a:	9b11      	ldr	r3, [sp, #68]	; 0x44
 8002c6c:	2b01      	cmp	r3, #1
 8002c6e:	bf02      	ittt	eq
 8002c70:	68c3      	ldreq	r3, [r0, #12]
 8002c72:	f443 1380 	orreq.w	r3, r3, #1048576	; 0x100000
 8002c76:	60c3      	streq	r3, [r0, #12]
 8002c78:	f7ff ffba 	bl	8002bf0 <USB_CoreReset>
 8002c7c:	9b08      	ldr	r3, [sp, #32]
 8002c7e:	2b01      	cmp	r3, #1
 8002c80:	d107      	bne.n	8002c92 <USB_CoreInit+0x56>
 8002c82:	68a3      	ldr	r3, [r4, #8]
 8002c84:	f043 0306 	orr.w	r3, r3, #6
 8002c88:	60a3      	str	r3, [r4, #8]
 8002c8a:	68a3      	ldr	r3, [r4, #8]
 8002c8c:	f043 0320 	orr.w	r3, r3, #32
 8002c90:	60a3      	str	r3, [r4, #8]
 8002c92:	e8bd 4038 	ldmia.w	sp!, {r3, r4, r5, lr}
 8002c96:	b004      	add	sp, #16
 8002c98:	4770      	bx	lr
 8002c9a:	68c3      	ldr	r3, [r0, #12]
 8002c9c:	f043 0340 	orr.w	r3, r3, #64	; 0x40
 8002ca0:	60c3      	str	r3, [r0, #12]
 8002ca2:	f7ff ffa5 	bl	8002bf0 <USB_CoreReset>
 8002ca6:	9b0e      	ldr	r3, [sp, #56]	; 0x38
 8002ca8:	b923      	cbnz	r3, 8002cb4 <USB_CoreInit+0x78>
 8002caa:	6ba3      	ldr	r3, [r4, #56]	; 0x38
 8002cac:	f443 3380 	orr.w	r3, r3, #65536	; 0x10000
 8002cb0:	63a3      	str	r3, [r4, #56]	; 0x38
 8002cb2:	e7e3      	b.n	8002c7c <USB_CoreInit+0x40>
 8002cb4:	6ba3      	ldr	r3, [r4, #56]	; 0x38
 8002cb6:	f423 3380 	bic.w	r3, r3, #65536	; 0x10000
 8002cba:	e7f9      	b.n	8002cb0 <USB_CoreInit+0x74>

08002cbc <USB_DisableGlobalInt>:
 8002cbc:	6883      	ldr	r3, [r0, #8]
 8002cbe:	f023 0301 	bic.w	r3, r3, #1
 8002cc2:	6083      	str	r3, [r0, #8]
 8002cc4:	2000      	movs	r0, #0
 8002cc6:	4770      	bx	lr

08002cc8 <USB_SetCurrentMode>:
 8002cc8:	b538      	push	{r3, r4, r5, lr}
 8002cca:	68c3      	ldr	r3, [r0, #12]
 8002ccc:	2901      	cmp	r1, #1
 8002cce:	f023 43c0 	bic.w	r3, r3, #1610612736	; 0x60000000
 8002cd2:	4605      	mov	r5, r0
 8002cd4:	60c3      	str	r3, [r0, #12]
 8002cd6:	d110      	bne.n	8002cfa <USB_SetCurrentMode+0x32>
 8002cd8:	68c3      	ldr	r3, [r0, #12]
 8002cda:	f043 5300 	orr.w	r3, r3, #536870912	; 0x20000000
 8002cde:	60c3      	str	r3, [r0, #12]
 8002ce0:	2400      	movs	r4, #0
 8002ce2:	2001      	movs	r0, #1
 8002ce4:	f7fe f8e6 	bl	8000eb4 <HAL_Delay>
 8002ce8:	696b      	ldr	r3, [r5, #20]
 8002cea:	07d9      	lsls	r1, r3, #31
 8002cec:	f104 0401 	add.w	r4, r4, #1
 8002cf0:	d415      	bmi.n	8002d1e <USB_SetCurrentMode+0x56>
 8002cf2:	2c32      	cmp	r4, #50	; 0x32
 8002cf4:	d1f5      	bne.n	8002ce2 <USB_SetCurrentMode+0x1a>
 8002cf6:	2001      	movs	r0, #1
 8002cf8:	bd38      	pop	{r3, r4, r5, pc}
 8002cfa:	2900      	cmp	r1, #0
 8002cfc:	d1fb      	bne.n	8002cf6 <USB_SetCurrentMode+0x2e>
 8002cfe:	68c3      	ldr	r3, [r0, #12]
 8002d00:	f043 4380 	orr.w	r3, r3, #1073741824	; 0x40000000
 8002d04:	60c3      	str	r3, [r0, #12]
 8002d06:	460c      	mov	r4, r1
 8002d08:	2001      	movs	r0, #1
 8002d0a:	f7fe f8d3 	bl	8000eb4 <HAL_Delay>
 8002d0e:	696b      	ldr	r3, [r5, #20]
 8002d10:	07da      	lsls	r2, r3, #31
 8002d12:	f104 0401 	add.w	r4, r4, #1
 8002d16:	d502      	bpl.n	8002d1e <USB_SetCurrentMode+0x56>
 8002d18:	2c32      	cmp	r4, #50	; 0x32
 8002d1a:	d1f5      	bne.n	8002d08 <USB_SetCurrentMode+0x40>
 8002d1c:	e7eb      	b.n	8002cf6 <USB_SetCurrentMode+0x2e>
 8002d1e:	f1a4 0332 	sub.w	r3, r4, #50	; 0x32
 8002d22:	4258      	negs	r0, r3
 8002d24:	4158      	adcs	r0, r3
 8002d26:	e7e7      	b.n	8002cf8 <USB_SetCurrentMode+0x30>

08002d28 <USB_FlushTxFifo>:
 8002d28:	b082      	sub	sp, #8
 8002d2a:	2300      	movs	r3, #0
 8002d2c:	4a10      	ldr	r2, [pc, #64]	; (8002d70 <USB_FlushTxFifo+0x48>)
 8002d2e:	9301      	str	r3, [sp, #4]
 8002d30:	9b01      	ldr	r3, [sp, #4]
 8002d32:	3301      	adds	r3, #1
 8002d34:	9301      	str	r3, [sp, #4]
 8002d36:	9b01      	ldr	r3, [sp, #4]
 8002d38:	4293      	cmp	r3, r2
 8002d3a:	d816      	bhi.n	8002d6a <USB_FlushTxFifo+0x42>
 8002d3c:	6903      	ldr	r3, [r0, #16]
 8002d3e:	2b00      	cmp	r3, #0
 8002d40:	daf6      	bge.n	8002d30 <USB_FlushTxFifo+0x8>
 8002d42:	0189      	lsls	r1, r1, #6
 8002d44:	2300      	movs	r3, #0
 8002d46:	f041 0120 	orr.w	r1, r1, #32
 8002d4a:	4a09      	ldr	r2, [pc, #36]	; (8002d70 <USB_FlushTxFifo+0x48>)
 8002d4c:	9301      	str	r3, [sp, #4]
 8002d4e:	6101      	str	r1, [r0, #16]
 8002d50:	9b01      	ldr	r3, [sp, #4]
 8002d52:	3301      	adds	r3, #1
 8002d54:	9301      	str	r3, [sp, #4]
 8002d56:	9b01      	ldr	r3, [sp, #4]
 8002d58:	4293      	cmp	r3, r2
 8002d5a:	d806      	bhi.n	8002d6a <USB_FlushTxFifo+0x42>
 8002d5c:	6903      	ldr	r3, [r0, #16]
 8002d5e:	f013 0320 	ands.w	r3, r3, #32
 8002d62:	d1f5      	bne.n	8002d50 <USB_FlushTxFifo+0x28>
 8002d64:	4618      	mov	r0, r3
 8002d66:	b002      	add	sp, #8
 8002d68:	4770      	bx	lr
 8002d6a:	2003      	movs	r0, #3
 8002d6c:	e7fb      	b.n	8002d66 <USB_FlushTxFifo+0x3e>
 8002d6e:	bf00      	nop
 8002d70:	00030d40 	.word	0x00030d40

08002d74 <USB_FlushRxFifo>:
 8002d74:	b082      	sub	sp, #8
 8002d76:	2300      	movs	r3, #0
 8002d78:	4a0f      	ldr	r2, [pc, #60]	; (8002db8 <USB_FlushRxFifo+0x44>)
 8002d7a:	9301      	str	r3, [sp, #4]
 8002d7c:	9b01      	ldr	r3, [sp, #4]
 8002d7e:	3301      	adds	r3, #1
 8002d80:	9301      	str	r3, [sp, #4]
 8002d82:	9b01      	ldr	r3, [sp, #4]
 8002d84:	4293      	cmp	r3, r2
 8002d86:	d814      	bhi.n	8002db2 <USB_FlushRxFifo+0x3e>
 8002d88:	6903      	ldr	r3, [r0, #16]
 8002d8a:	2b00      	cmp	r3, #0
 8002d8c:	daf6      	bge.n	8002d7c <USB_FlushRxFifo+0x8>
 8002d8e:	2300      	movs	r3, #0
 8002d90:	9301      	str	r3, [sp, #4]
 8002d92:	4a09      	ldr	r2, [pc, #36]	; (8002db8 <USB_FlushRxFifo+0x44>)
 8002d94:	2310      	movs	r3, #16
 8002d96:	6103      	str	r3, [r0, #16]
 8002d98:	9b01      	ldr	r3, [sp, #4]
 8002d9a:	3301      	adds	r3, #1
 8002d9c:	9301      	str	r3, [sp, #4]
 8002d9e:	9b01      	ldr	r3, [sp, #4]
 8002da0:	4293      	cmp	r3, r2
 8002da2:	d806      	bhi.n	8002db2 <USB_FlushRxFifo+0x3e>
 8002da4:	6903      	ldr	r3, [r0, #16]
 8002da6:	f013 0310 	ands.w	r3, r3, #16
 8002daa:	d1f5      	bne.n	8002d98 <USB_FlushRxFifo+0x24>
 8002dac:	4618      	mov	r0, r3
 8002dae:	b002      	add	sp, #8
 8002db0:	4770      	bx	lr
 8002db2:	2003      	movs	r0, #3
 8002db4:	e7fb      	b.n	8002dae <USB_FlushRxFifo+0x3a>
 8002db6:	bf00      	nop
 8002db8:	00030d40 	.word	0x00030d40

08002dbc <USB_SetDevSpeed>:
 8002dbc:	f8d0 3800 	ldr.w	r3, [r0, #2048]	; 0x800
 8002dc0:	4319      	orrs	r1, r3
 8002dc2:	f8c0 1800 	str.w	r1, [r0, #2048]	; 0x800
 8002dc6:	2000      	movs	r0, #0
 8002dc8:	4770      	bx	lr
	...

08002dcc <USB_DevInit>:
 8002dcc:	b084      	sub	sp, #16
 8002dce:	e92d 43f8 	stmdb	sp!, {r3, r4, r5, r6, r7, r8, r9, lr}
 8002dd2:	4604      	mov	r4, r0
 8002dd4:	a809      	add	r0, sp, #36	; 0x24
 8002dd6:	e880 000e 	stmia.w	r0, {r1, r2, r3}
 8002dda:	9d13      	ldr	r5, [sp, #76]	; 0x4c
 8002ddc:	2300      	movs	r3, #0
 8002dde:	460e      	mov	r6, r1
 8002de0:	4619      	mov	r1, r3
 8002de2:	f103 0240 	add.w	r2, r3, #64	; 0x40
 8002de6:	eb04 0282 	add.w	r2, r4, r2, lsl #2
 8002dea:	3301      	adds	r3, #1
 8002dec:	2b0f      	cmp	r3, #15
 8002dee:	6051      	str	r1, [r2, #4]
 8002df0:	d1f7      	bne.n	8002de2 <USB_DevInit+0x16>
 8002df2:	f504 6700 	add.w	r7, r4, #2048	; 0x800
 8002df6:	2d00      	cmp	r5, #0
 8002df8:	d16c      	bne.n	8002ed4 <USB_DevInit+0x108>
 8002dfa:	687b      	ldr	r3, [r7, #4]
 8002dfc:	f043 0302 	orr.w	r3, r3, #2
 8002e00:	607b      	str	r3, [r7, #4]
 8002e02:	6ba3      	ldr	r3, [r4, #56]	; 0x38
 8002e04:	f423 1300 	bic.w	r3, r3, #2097152	; 0x200000
 8002e08:	63a3      	str	r3, [r4, #56]	; 0x38
 8002e0a:	6823      	ldr	r3, [r4, #0]
 8002e0c:	f043 0340 	orr.w	r3, r3, #64	; 0x40
 8002e10:	6023      	str	r3, [r4, #0]
 8002e12:	6823      	ldr	r3, [r4, #0]
 8002e14:	f043 0380 	orr.w	r3, r3, #128	; 0x80
 8002e18:	6023      	str	r3, [r4, #0]
 8002e1a:	2300      	movs	r3, #0
 8002e1c:	f8c4 3e00 	str.w	r3, [r4, #3584]	; 0xe00
 8002e20:	f8d4 3800 	ldr.w	r3, [r4, #2048]	; 0x800
 8002e24:	f8c4 3800 	str.w	r3, [r4, #2048]	; 0x800
 8002e28:	9b0e      	ldr	r3, [sp, #56]	; 0x38
 8002e2a:	2b01      	cmp	r3, #1
 8002e2c:	d159      	bne.n	8002ee2 <USB_DevInit+0x116>
 8002e2e:	990b      	ldr	r1, [sp, #44]	; 0x2c
 8002e30:	2900      	cmp	r1, #0
 8002e32:	d154      	bne.n	8002ede <USB_DevInit+0x112>
 8002e34:	4620      	mov	r0, r4
 8002e36:	f7ff ffc1 	bl	8002dbc <USB_SetDevSpeed>
 8002e3a:	2110      	movs	r1, #16
 8002e3c:	4620      	mov	r0, r4
 8002e3e:	f7ff ff73 	bl	8002d28 <USB_FlushTxFifo>
 8002e42:	4601      	mov	r1, r0
 8002e44:	4620      	mov	r0, r4
 8002e46:	f7ff ff95 	bl	8002d74 <USB_FlushRxFifo>
 8002e4a:	4308      	orrs	r0, r1
 8002e4c:	b2c0      	uxtb	r0, r0
 8002e4e:	2300      	movs	r3, #0
 8002e50:	3800      	subs	r0, #0
 8002e52:	613b      	str	r3, [r7, #16]
 8002e54:	bf18      	it	ne
 8002e56:	2001      	movne	r0, #1
 8002e58:	617b      	str	r3, [r7, #20]
 8002e5a:	f504 6210 	add.w	r2, r4, #2304	; 0x900
 8002e5e:	61fb      	str	r3, [r7, #28]
 8002e60:	4619      	mov	r1, r3
 8002e62:	f04f 4c90 	mov.w	ip, #1207959552	; 0x48000000
 8002e66:	f04f 6e00 	mov.w	lr, #134217728	; 0x8000000
 8002e6a:	f64f 387f 	movw	r8, #64383	; 0xfb7f
 8002e6e:	42b3      	cmp	r3, r6
 8002e70:	d139      	bne.n	8002ee6 <USB_DevInit+0x11a>
 8002e72:	2200      	movs	r2, #0
 8002e74:	f504 6330 	add.w	r3, r4, #2816	; 0xb00
 8002e78:	4611      	mov	r1, r2
 8002e7a:	f04f 4c90 	mov.w	ip, #1207959552	; 0x48000000
 8002e7e:	f04f 6e00 	mov.w	lr, #134217728	; 0x8000000
 8002e82:	f64f 387f 	movw	r8, #64383	; 0xfb7f
 8002e86:	42b2      	cmp	r2, r6
 8002e88:	d140      	bne.n	8002f0c <USB_DevInit+0x140>
 8002e8a:	693b      	ldr	r3, [r7, #16]
 8002e8c:	f423 7380 	bic.w	r3, r3, #256	; 0x100
 8002e90:	613b      	str	r3, [r7, #16]
 8002e92:	2300      	movs	r3, #0
 8002e94:	61a3      	str	r3, [r4, #24]
 8002e96:	f06f 4380 	mvn.w	r3, #1073741824	; 0x40000000
 8002e9a:	6163      	str	r3, [r4, #20]
 8002e9c:	9b0c      	ldr	r3, [sp, #48]	; 0x30
 8002e9e:	b91b      	cbnz	r3, 8002ea8 <USB_DevInit+0xdc>
 8002ea0:	69a3      	ldr	r3, [r4, #24]
 8002ea2:	f043 0310 	orr.w	r3, r3, #16
 8002ea6:	61a3      	str	r3, [r4, #24]
 8002ea8:	69a2      	ldr	r2, [r4, #24]
 8002eaa:	4b22      	ldr	r3, [pc, #136]	; (8002f34 <USB_DevInit+0x168>)
 8002eac:	4313      	orrs	r3, r2
 8002eae:	61a3      	str	r3, [r4, #24]
 8002eb0:	9b0f      	ldr	r3, [sp, #60]	; 0x3c
 8002eb2:	b11b      	cbz	r3, 8002ebc <USB_DevInit+0xf0>
 8002eb4:	69a3      	ldr	r3, [r4, #24]
 8002eb6:	f043 0308 	orr.w	r3, r3, #8
 8002eba:	61a3      	str	r3, [r4, #24]
 8002ebc:	2d01      	cmp	r5, #1
 8002ebe:	bf01      	itttt	eq
 8002ec0:	69a3      	ldreq	r3, [r4, #24]
 8002ec2:	f043 4380 	orreq.w	r3, r3, #1073741824	; 0x40000000
 8002ec6:	f043 0304 	orreq.w	r3, r3, #4
 8002eca:	61a3      	streq	r3, [r4, #24]
 8002ecc:	e8bd 43f8 	ldmia.w	sp!, {r3, r4, r5, r6, r7, r8, r9, lr}
 8002ed0:	b004      	add	sp, #16
 8002ed2:	4770      	bx	lr
 8002ed4:	6ba3      	ldr	r3, [r4, #56]	; 0x38
 8002ed6:	f443 1300 	orr.w	r3, r3, #2097152	; 0x200000
 8002eda:	63a3      	str	r3, [r4, #56]	; 0x38
 8002edc:	e79d      	b.n	8002e1a <USB_DevInit+0x4e>
 8002ede:	4619      	mov	r1, r3
 8002ee0:	e7a8      	b.n	8002e34 <USB_DevInit+0x68>
 8002ee2:	2103      	movs	r1, #3
 8002ee4:	e7a6      	b.n	8002e34 <USB_DevInit+0x68>
 8002ee6:	f8d2 9000 	ldr.w	r9, [r2]
 8002eea:	f1b9 0f00 	cmp.w	r9, #0
 8002eee:	da0b      	bge.n	8002f08 <USB_DevInit+0x13c>
 8002ef0:	b93b      	cbnz	r3, 8002f02 <USB_DevInit+0x136>
 8002ef2:	f8c2 e000 	str.w	lr, [r2]
 8002ef6:	6111      	str	r1, [r2, #16]
 8002ef8:	3301      	adds	r3, #1
 8002efa:	f8c2 8008 	str.w	r8, [r2, #8]
 8002efe:	3220      	adds	r2, #32
 8002f00:	e7b5      	b.n	8002e6e <USB_DevInit+0xa2>
 8002f02:	f8c2 c000 	str.w	ip, [r2]
 8002f06:	e7f6      	b.n	8002ef6 <USB_DevInit+0x12a>
 8002f08:	6011      	str	r1, [r2, #0]
 8002f0a:	e7f4      	b.n	8002ef6 <USB_DevInit+0x12a>
 8002f0c:	f8d3 9000 	ldr.w	r9, [r3]
 8002f10:	f1b9 0f00 	cmp.w	r9, #0
 8002f14:	da0b      	bge.n	8002f2e <USB_DevInit+0x162>
 8002f16:	b93a      	cbnz	r2, 8002f28 <USB_DevInit+0x15c>
 8002f18:	f8c3 e000 	str.w	lr, [r3]
 8002f1c:	6119      	str	r1, [r3, #16]
 8002f1e:	3201      	adds	r2, #1
 8002f20:	f8c3 8008 	str.w	r8, [r3, #8]
 8002f24:	3320      	adds	r3, #32
 8002f26:	e7ae      	b.n	8002e86 <USB_DevInit+0xba>
 8002f28:	f8c3 c000 	str.w	ip, [r3]
 8002f2c:	e7f6      	b.n	8002f1c <USB_DevInit+0x150>
 8002f2e:	6019      	str	r1, [r3, #0]
 8002f30:	e7f4      	b.n	8002f1c <USB_DevInit+0x150>
 8002f32:	bf00      	nop
 8002f34:	803c3800 	.word	0x803c3800

08002f38 <USB_DevDisconnect>:
 8002f38:	f8d0 3e00 	ldr.w	r3, [r0, #3584]	; 0xe00
 8002f3c:	f023 0303 	bic.w	r3, r3, #3
 8002f40:	f8c0 3e00 	str.w	r3, [r0, #3584]	; 0xe00
 8002f44:	f8d0 3804 	ldr.w	r3, [r0, #2052]	; 0x804
 8002f48:	f043 0302 	orr.w	r3, r3, #2
 8002f4c:	f8c0 3804 	str.w	r3, [r0, #2052]	; 0x804
 8002f50:	2000      	movs	r0, #0
 8002f52:	4770      	bx	lr

08002f54 <memset>:
 8002f54:	4402      	add	r2, r0
 8002f56:	4603      	mov	r3, r0
 8002f58:	4293      	cmp	r3, r2
 8002f5a:	d100      	bne.n	8002f5e <memset+0xa>
 8002f5c:	4770      	bx	lr
 8002f5e:	f803 1b01 	strb.w	r1, [r3], #1
 8002f62:	e7f9      	b.n	8002f58 <memset+0x4>

08002f64 <__libc_init_array>:
 8002f64:	b570      	push	{r4, r5, r6, lr}
 8002f66:	4d0d      	ldr	r5, [pc, #52]	; (8002f9c <__libc_init_array+0x38>)
 8002f68:	4c0d      	ldr	r4, [pc, #52]	; (8002fa0 <__libc_init_array+0x3c>)
 8002f6a:	1b64      	subs	r4, r4, r5
 8002f6c:	10a4      	asrs	r4, r4, #2
 8002f6e:	2600      	movs	r6, #0
 8002f70:	42a6      	cmp	r6, r4
 8002f72:	d109      	bne.n	8002f88 <__libc_init_array+0x24>
 8002f74:	4d0b      	ldr	r5, [pc, #44]	; (8002fa4 <__libc_init_array+0x40>)
 8002f76:	4c0c      	ldr	r4, [pc, #48]	; (8002fa8 <__libc_init_array+0x44>)
 8002f78:	f000 f818 	bl	8002fac <_init>
 8002f7c:	1b64      	subs	r4, r4, r5
 8002f7e:	10a4      	asrs	r4, r4, #2
 8002f80:	2600      	movs	r6, #0
 8002f82:	42a6      	cmp	r6, r4
 8002f84:	d105      	bne.n	8002f92 <__libc_init_array+0x2e>
 8002f86:	bd70      	pop	{r4, r5, r6, pc}
 8002f88:	f855 3b04 	ldr.w	r3, [r5], #4
 8002f8c:	4798      	blx	r3
 8002f8e:	3601      	adds	r6, #1
 8002f90:	e7ee      	b.n	8002f70 <__libc_init_array+0xc>
 8002f92:	f855 3b04 	ldr.w	r3, [r5], #4
 8002f96:	4798      	blx	r3
 8002f98:	3601      	adds	r6, #1
 8002f9a:	e7f2      	b.n	8002f82 <__libc_init_array+0x1e>
 8002f9c:	08002fec 	.word	0x08002fec
 8002fa0:	08002fec 	.word	0x08002fec
 8002fa4:	08002fec 	.word	0x08002fec
 8002fa8:	08002ff0 	.word	0x08002ff0

08002fac <_init>:
 8002fac:	b5f8      	push	{r3, r4, r5, r6, r7, lr}
 8002fae:	bf00      	nop
 8002fb0:	bcf8      	pop	{r3, r4, r5, r6, r7}
 8002fb2:	bc08      	pop	{r3}
 8002fb4:	469e      	mov	lr, r3
 8002fb6:	4770      	bx	lr

08002fb8 <_fini>:
 8002fb8:	b5f8      	push	{r3, r4, r5, r6, r7, lr}
 8002fba:	bf00      	nop
 8002fbc:	bcf8      	pop	{r3, r4, r5, r6, r7}
 8002fbe:	bc08      	pop	{r3}
 8002fc0:	469e      	mov	lr, r3
 8002fc2:	4770      	bx	lr
